(dp0
VBeth CRANE
p1
c__builtin__
set
p2
((lp3
VCAN
p4
atp5
Rp6
sVAlexandre GOROJDANOV
p7
g2
((lp8
VBLR
p9
atp10
Rp11
sVNicholas RUSSELL
p12
g2
((lp13
VGBR
p14
atp15
Rp16
sVTodd SAND
p17
g2
((lp18
VISU
p19
atp20
Rp21
sVReinhard MIRMSEKER
p22
g2
((lp23
VISU
p24
atp25
Rp26
sVSimon BRIGGS
p27
g2
((lp28
VISU
p29
atp30
Rp31
sVPeter DURNEV
p32
g2
((lp33
VISU
p34
atp35
Rp36
sVRoland WEHINGER
p37
g2
((lp38
VSUI
p39
atp40
Rp41
sVKarin EHRHARDT
p42
g2
((lp43
VAUT
p44
atp45
Rp46
sVXixia LIU
p47
g2
((lp48
VCHN
p49
atp50
Rp51
sVJimmy YOUNG
p52
g2
((lp53
VISU
p54
atp55
Rp56
sVOsman SIRVAN
p57
g2
((lp58
VISU
p59
atp60
Rp61
sVValerie LAMBERT
p62
g2
((lp63
VFRA
p64
atp65
Rp66
sVClaire SHEPHERD
p67
g2
((lp68
VGBR
p69
atp70
Rp71
sVElisabeth LOUESDON
p72
g2
((lp73
VFRA
p74
atp75
Rp76
sVDan FANG
p77
g2
((lp78
VCHN
p79
atp80
Rp81
sVDavid MOLINA
p82
g2
((lp83
VFRA
p84
atp85
Rp86
sVLaimute KRAUZIENE
p87
g2
((lp88
VLTU
p89
atp90
Rp91
sVTomiko YAMADA
p92
g2
((lp93
VJPN
p94
atp95
Rp96
sVRobert J. HOREN
p97
g2
((lp98
VISU
p99
atp100
Rp101
sVPrisca BINZ-MOSER
p102
g2
((lp103
VSUI
p104
atp105
Rp106
sVIrina MEDVEDEVA
p107
g2
((lp108
VUKR
p109
aVAZE
p110
atp111
Rp112
sVKrunoslava CUMIC
p113
g2
((lp114
VISU
p115
atp116
Rp117
sVNatalia LEBEDEVA
p118
g2
((lp119
VISU
p120
atp121
Rp122
sVKvetoslava MATEJOVA
p123
g2
((lp124
VISU
p125
atp126
Rp127
sVVladimir CUCHRAN
p128
g2
((lp129
VISU
p130
atp131
Rp132
sVAnne G. SHEAN
p133
g2
((lp134
VUSA
p135
atp136
Rp137
sVThomas BIEGLER
p138
g2
((lp139
VISU
p140
atp141
Rp142
sVAlexander KOENIG
p143
g2
((lp144
VISU
p145
atp146
Rp147
sVAlexander KUZNETSOV
p148
g2
((lp149
VISU
p150
atp151
Rp152
sVIgor ZAVOZIN
p153
g2
((lp154
VARM
p155
atp156
Rp157
sVTanay OZKAN
p158
g2
((lp159
VTUR
p160
atp161
Rp162
sVOlga KOZHEMIAKINA
p163
g2
((lp164
VRUS
p165
atp166
Rp167
sVDavid SANTEE
p168
g2
((lp169
VISU
p170
atp171
Rp172
sVAgita ABELE
p173
g2
((lp174
VLAT
p175
atp176
Rp177
sVLeena LAAKSONEN
p178
g2
((lp179
VFIN
p180
atp181
Rp182
sVDavid KIRBY
p183
g2
((lp184
VISU
p185
atp186
Rp187
sVAlexander LAKERNIK
p188
g2
((lp189
VISU
p190
atp191
Rp192
sVHailan JIANG
p193
g2
((lp194
VCHN
p195
atp196
Rp197
sVRichard KOSINA
p198
g2
((lp199
VCZE
p200
atp201
Rp202
sVGarry HOPPE
p203
g2
((lp204
VISR
p205
aVGBR
p206
atp207
Rp208
sVJarmila PORTOVA
p209
g2
((lp210
VCZE
p211
atp212
Rp213
sVSlobodan DELIC
p214
g2
((lp215
VGRE
p216
atp217
Rp218
sVHilary SELBY
p219
g2
((lp220
VGBR
p221
atp222
Rp223
sVAnn FINDLAY
p224
g2
((lp225
VISU
p226
atp227
Rp228
sVOdette COULSON
p229
g2
((lp230
VISU
p231
atp232
Rp233
sVRichard GRAINGE
p234
g2
((lp235
VGBR
p236
atp237
Rp238
sVAnne FAGERSTROM
p239
g2
((lp240
VISU
p241
atp242
Rp243
sVJulia SEMJONOVA
p244
g2
((lp245
VEST
p246
atp247
Rp248
sVMarketa HORKLOVA
p249
g2
((lp250
VCZE
p251
atp252
Rp253
sVIsabella MICHELI
p254
g2
((lp255
VITA
p256
atp257
Rp258
sVTsuguhiko KOZUKA
p259
g2
((lp260
VJPN
p261
atp262
Rp263
sVRoxane PETETIN
p264
g2
((lp265
VISU
p266
atp267
Rp268
sVIgor PASHKEVICH
p269
g2
((lp270
VISU
p271
atp272
Rp273
sVRaimo REINSALU
p274
g2
((lp275
VEST
p276
atp277
Rp278
sVMichela MALINGAMBI
p279
g2
((lp280
VITA
p281
atp282
Rp283
sVAnna SIEROCKA
p284
g2
((lp285
VPOL
p286
atp287
Rp288
sVOlga GILARDINI
p289
g2
((lp290
VISU
p291
atp292
Rp293
sVJohn COLE
p294
g2
((lp295
VUSA
p296
atp297
Rp298
sVRita ZONNEKEYN
p299
g2
((lp300
VBEL
p301
atp302
Rp303
sVJan HOFFMANN
p304
g2
((lp305
VGER
p306
atp307
Rp308
sVIkuko ISHIKAWA
p309
g2
((lp310
VISU
p311
atp312
Rp313
sVHelle CARLSEN
p314
g2
((lp315
VISU
p316
atp317
Rp318
sVSergei PONOMARENKO
p319
g2
((lp320
VISU
p321
atp322
Rp323
sVJiasheng YANG
p324
g2
((lp325
VCHN
p326
atp327
Rp328
sVKristina HOUWING
p329
g2
((lp330
VSWE
p331
atp332
Rp333
sVFrancoise DE RAPPARD
p334
g2
((lp335
VBEL
p336
atp337
Rp338
sVMika SAARELAINEN
p339
g2
((lp340
VFIN
p341
atp342
Rp343
sVGalit CHAIT-MORACCI
p344
g2
((lp345
VISU
p346
atp347
Rp348
sVAyako HIGASHINO
p349
g2
((lp350
VISU
p351
atp352
Rp353
sVEvgeny MARTYNOV
p354
g2
((lp355
VISU
p356
atp357
Rp358
sVHanna THEN
p359
g2
((lp360
VISU
p361
atp362
Rp363
sVLorrie PARKER
p364
g2
((lp365
VUSA
p366
atp367
Rp368
sVAntica GRUBISIC
p369
g2
((lp370
VCRO
p371
atp372
Rp373
sVKylie Anne YACOPETTI
p374
g2
((lp375
VAUS
p376
atp377
Rp378
sVJason DUNGJEN
p379
g2
((lp380
VISU
p381
atp382
Rp383
sVCsaba BALINT
p384
g2
((lp385
VHUN
p386
atp387
Rp388
sVDingding LIU
p389
g2
((lp390
VISU
p391
atp392
Rp393
sVAndrea TRNKOVA-KUNCOVA
p394
g2
((lp395
VISU
p396
atp397
Rp398
sVYing ZHAO
p399
g2
((lp400
VCHN
p401
atp402
Rp403
sVSusanne WAHLSTROM
p404
g2
((lp405
VSWE
p406
atp407
Rp408
sVUbavka KUTINOU-NOVAKOVIC
p409
g2
((lp410
VISU
p411
atp412
Rp413
sVDaniela CAVELLI
p414
g2
((lp415
VISU
p416
atp417
Rp418
sVJana BAUDYSOVA
p419
g2
((lp420
VCZE
p421
atp422
Rp423
sVTeri SEDEJ
p424
g2
((lp425
VSLO
p426
atp427
Rp428
sVWilliam S. SMITH
p429
g2
((lp430
VUSA
p431
atp432
Rp433
sVAndre-Marc ALLAIN
p434
g2
((lp435
VCAN
p436
atp437
Rp438
sVKelly CRUICKSHANK
p439
g2
((lp440
VISU
p441
atp442
Rp443
sVStefan GRAMPELHUBER
p444
g2
((lp445
VAUT
p446
atp447
Rp448
sVYoshiko KOBAYASHI
p449
g2
((lp450
VJPN
p451
atp452
Rp453
sVJoanna MILLER
p454
g2
((lp455
VISU
p456
atp457
Rp458
sVReaghan FAWCETT
p459
g2
((lp460
VCAN
p461
atp462
Rp463
sVLovorka KODRIN
p464
g2
((lp465
VISU
p466
atp467
Rp468
sVDavid MOELLENKAMP
p469
g2
((lp470
VISU
p471
atp472
Rp473
sVLynne DEY
p474
g2
((lp475
VCAN
p476
atp477
Rp478
sVHelle LYNGBERG
p479
g2
((lp480
VISU
p481
atp482
Rp483
sVAniela HEBEL-SZMAK
p484
g2
((lp485
VPOL
p486
atp487
Rp488
sVAnna KANTOR
p489
g2
((lp490
VISR
p491
atp492
Rp493
sVJozica PODBEVESEK
p494
g2
((lp495
VISU
p496
atp497
Rp498
sVAkira YOSHIZAWA
p499
g2
((lp500
VJPN
p501
atp502
Rp503
sVTatiana SHARKINA
p504
g2
((lp505
VRUS
p506
atp507
Rp508
sVErica SONDEREGGER
p509
g2
((lp510
VISU
p511
atp512
Rp513
sVEkrem MALKOC
p514
g2
((lp515
VTUR
p516
atp517
Rp518
sVZsofia KULCZAR
p519
g2
((lp520
VISU
p521
atp522
Rp523
sVValerie GREUGNY-HUART
p524
g2
((lp525
VFRA
p526
atp527
Rp528
sVRoger GLENN
p529
g2
((lp530
VUSA
p531
atp532
Rp533
sVEva MARTINEK
p534
g2
((lp535
VISU
p536
atp537
Rp538
sVSakiko OKANO
p539
g2
((lp540
VJPN
p541
atp542
Rp543
sVDoug WILLIAMS
p544
g2
((lp545
VUSA
p546
atp547
Rp548
sVValery MAKSAEV
p549
g2
((lp550
VISU
p551
atp552
Rp553
sVIrina NECHKINA
p554
g2
((lp555
VAZE
p556
atp557
Rp558
sVHermi OTTEMANN
p559
g2
((lp560
VISU
p561
atp562
Rp563
sVTatiana YORDANOVA
p564
g2
((lp565
VBUL
p566
atp567
Rp568
sVZoltan JANOSI
p569
g2
((lp570
VISU
p571
atp572
Rp573
sVKari-Anne OLSEN
p574
g2
((lp575
VNOR
p576
atp577
Rp578
sVJohn MILLIER
p579
g2
((lp580
VUSA
p581
atp582
Rp583
sVDaniel DE PAIX DE COEUR
p584
g2
((lp585
VFRA
p586
atp587
Rp588
sVShawn RETTSTATT
p589
g2
((lp590
VUSA
p591
atp592
Rp593
sVSzilard TOTH
p594
g2
((lp595
VHUN
p596
atp597
Rp598
sVEvelyn ROSSOUKHI-SCHNEIDER
p599
g2
((lp600
VISU
p601
atp602
Rp603
sVAdriana ORDEANU
p604
g2
((lp605
VROM
p606
atp607
Rp608
sVAgnes MORVAI-KOVECSES
p609
g2
((lp610
VHUN
p611
atp612
Rp613
sVKadi ZVIRIK
p614
g2
((lp615
VEST
p616
atp617
Rp618
sVMariusz SIUDEK
p619
g2
((lp620
VISU
p621
atp622
Rp623
sVJodi ABBOTT
p624
g2
((lp625
VCAN
p626
atp627
Rp628
sVAlexandra FORD
p629
g2
((lp630
VAUS
p631
atp632
Rp633
sVRichard DALLEY
p634
g2
((lp635
VUSA
p636
atp637
Rp638
sVDeborah NOYES
p639
g2
((lp640
VISU
p641
atp642
Rp643
sVMarjo KANKAANRANTA
p644
g2
((lp645
VFIN
p646
atp647
Rp648
sVNadezhda PARETSKAIA
p649
g2
((lp650
VKAZ
p651
atp652
Rp653
sVJanet COTON
p654
g2
((lp655
VGBR
p656
atp657
Rp658
sVNeil GARRARD
p659
g2
((lp660
VISU
p661
atp662
Rp663
sVFrancois WAITZMAN
p664
g2
((lp665
VFRA
p666
atp667
Rp668
sVMarion KRIJGSMAN
p669
g2
((lp670
VISU
p671
atp672
Rp673
sVSteve MUFF
p674
g2
((lp675
VISU
p676
atp677
Rp678
sVWalter ZUCCARO
p679
g2
((lp680
VITA
p681
atp682
Rp683
sVLisa ERVIN-BAUDO
p684
g2
((lp685
VISU
p686
atp687
Rp688
sVMartin PAULMICHL
p689
g2
((lp690
VISU
p691
atp692
Rp693
sVRicardo OLAVARRIETA
p694
g2
((lp695
VISU
p696
atp697
Rp698
sVUlla FAIG
p699
g2
((lp700
VGER
p701
atp702
Rp703
sVKitty DELIO-LAFORTE
p704
g2
((lp705
VUSA
p706
atp707
Rp708
sVKyung-Won SAKONG
p709
g2
((lp710
VKOR
p711
atp712
Rp713
sVVladimir PETRENKO
p714
g2
((lp715
VISU
p716
atp717
Rp718
sVYu WANG
p719
g2
((lp720
VCHN
p721
atp722
Rp723
sVTed BARTON
p724
g2
((lp725
VISU
p726
atp727
Rp728
sVVanessa RILEY
p729
g2
((lp730
VISU
p731
atp732
Rp733
sVIgor DOLGUSHIN
p734
g2
((lp735
VRUS
p736
atp737
Rp738
sVJudy BLUMBERG
p739
g2
((lp740
VISU
p741
atp742
Rp743
sVAngelique CLYDE-SMITH
p744
g2
((lp745
VAUS
p746
atp747
Rp748
sVMieko FUJIMORI
p749
g2
((lp750
VJPN
p751
atp752
Rp753
sVAlan BLINN
p754
g2
((lp755
VAUS
p756
atp757
Rp758
sVEmilie BILLOW
p759
g2
((lp760
VSWE
p761
atp762
Rp763
sVJia YAO
p764
g2
((lp765
VCHN
p766
atp767
Rp768
sVRolf PIPOH
p769
g2
((lp770
VGER
p771
atp772
Rp773
sVThomas RAUER
p774
g2
((lp775
VISU
p776
atp777
Rp778
sVVirpi KUNNAS-HELMINEN
p779
g2
((lp780
VISU
p781
atp782
Rp783
sVBirgit FOELL
p784
g2
((lp785
VISU
p786
atp787
Rp788
sVRaisa GAGARINA
p789
g2
((lp790
VUZB
p791
atp792
Rp793
sVMargo PAUW
p794
g2
((lp795
VISU
p796
atp797
Rp798
sVMeiko SASAKI
p799
g2
((lp800
VJPN
p801
atp802
Rp803
sVAnn SHAW
p804
g2
((lp805
VCAN
p806
atp807
Rp808
sVNobuhiko YOSHIOKA
p809
g2
((lp810
VJPN
p811
atp812
Rp813
sVPeter RANKIN
p814
g2
((lp815
VAUS
p816
atp817
Rp818
sVDenis SAMOKHIN
p819
g2
((lp820
VISU
p821
atp822
Rp823
sVCamilla FREDMAN
p824
g2
((lp825
VSWE
p826
atp827
Rp828
sVMagdalena RUSIECKA
p829
g2
((lp830
VISU
p831
atp832
Rp833
sVClaudia FASSORA
p834
g2
((lp835
VSUI
p836
atp837
Rp838
sVLaura MCNAIR
p839
g2
((lp840
VISU
p841
atp842
Rp843
sVCoco SHEAN
p844
g2
((lp845
VISU
p846
atp847
Rp848
sVLorenzo MAGRI
p849
g2
((lp850
VISU
p851
atp852
Rp853
sVAnn HARDY-THOMAS
p854
g2
((lp855
VISU
p856
atp857
Rp858
sVEugen LARASSER
p859
g2
((lp860
VISU
p861
atp862
Rp863
sVJamie MCGRIGOR
p864
g2
((lp865
VISU
p866
atp867
Rp868
sVSissy KRICK
p869
g2
((lp870
VGER
p871
atp872
Rp873
sVLeslie KEEN
p874
g2
((lp875
VCAN
p876
atp877
Rp878
sVAndrea DERBY
p879
g2
((lp880
VCAN
p881
atp882
Rp883
sVPeeter LAUR
p884
g2
((lp885
VISU
p886
atp887
Rp888
sVRaia BISSEROVA-BAKALOVA
p889
g2
((lp890
VBUL
p891
atp892
Rp893
sVAnja RIST
p894
g2
((lp895
VGER
p896
atp897
Rp898
sVNicole ENDRESS
p899
g2
((lp900
VISU
p901
atp902
Rp903
sVBeatrice PFISTER
p904
g2
((lp905
VSUI
p906
atp907
Rp908
sVRock LEMAY
p909
g2
((lp910
VISU
p911
atp912
Rp913
sVJean SENFT
p914
g2
((lp915
VCAN
p916
atp917
Rp918
sVAngelo DOLFINI
p919
g2
((lp920
VISU
p921
atp922
Rp923
sVHalina GORDON-POLTORAK
p924
g2
((lp925
VPOL
p926
atp927
Rp928
sVVolker WALDECK
p929
g2
((lp930
VGER
p931
atp932
Rp933
sVWilliam THOMPSON
p934
g2
((lp935
VCAN
p936
atp937
Rp938
sVAlexei BELETSKI
p939
g2
((lp940
VISR
p941
atp942
Rp943
sVReiko OGAWA
p944
g2
((lp945
VJPN
p946
atp947
Rp948
sVBerit AARNES
p949
g2
((lp950
VISU
p951
atp952
Rp953
sVIgor PROKOP
p954
g2
((lp955
VISU
p956
atp957
Rp958
sVSusan HEFFERNAN
p959
g2
((lp960
VCAN
p961
atp962
Rp963
sVSimonetta SPALLUTO
p964
g2
((lp965
VITA
p966
atp967
Rp968
sVElizabeth RYAN
p969
g2
((lp970
VAUS
p971
atp972
Rp973
sVAdriana DOMANSKA
p974
g2
((lp975
VSVK
p976
atp977
Rp978
sVDagmar LURZ-PROTT
p979
g2
((lp980
VGER
p981
atp982
Rp983
sVMonika KUSTAROVA
p984
g2
((lp985
VISU
p986
atp987
Rp988
sVJeff LUKASIK
p989
g2
((lp990
VCAN
p991
atp992
Rp993
sVSenem AHISKAL
p994
g2
((lp995
VISU
p996
atp997
Rp998
sVMichael HOPFES
p999
g2
((lp1000
VISU
p1001
atp1002
Rp1003
sVMona JONSSON
p1004
g2
((lp1005
VSWE
p1006
atp1007
Rp1008
sVFranca BIANCONI
p1009
g2
((lp1010
VISU
p1011
atp1012
Rp1013
sVAlexandr GORSHKOV
p1014
g2
((lp1015
VISU
p1016
atp1017
Rp1018
sVAndrzej DOSTATNI
p1019
g2
((lp1020
VISU
p1021
atp1022
Rp1023
sVAigul KUANISHEVA
p1024
g2
((lp1025
VKAZ
p1026
atp1027
Rp1028
sVLudmila MIKHAILOVSKAYA
p1029
g2
((lp1030
VUKR
p1031
atp1032
Rp1033
sVAlice WALDER
p1034
g2
((lp1035
VSUI
p1036
atp1037
Rp1038
sVTarja RISTANEN
p1039
g2
((lp1040
VFIN
p1041
atp1042
Rp1043
sVElisabeth BINDER
p1044
g2
((lp1045
VISU
p1046
atp1047
Rp1048
sVMarika HUMPHREYS-BARANOVA
p1049
g2
((lp1050
VISU
p1051
atp1052
Rp1053
sVRichard OSTIGUY
p1054
g2
((lp1055
VISU
p1056
atp1057
Rp1058
sVMerja KOSONEN
p1059
g2
((lp1060
VFIN
p1061
atp1062
Rp1063
sVVladislav PETUKHOV
p1064
g2
((lp1065
VUKR
p1066
atp1067
Rp1068
sVNatalia KRUGLOVA
p1069
g2
((lp1070
VUKR
p1071
atp1072
Rp1073
sVElena FOMINA
p1074
g2
((lp1075
VRUS
p1076
atp1077
Rp1078
sVJunko HIRAMATSU
p1079
g2
((lp1080
VISU
p1081
atp1082
Rp1083
sVNatalie TAYLOR
p1084
g2
((lp1085
VAUS
p1086
atp1087
Rp1088
sVLenka BOHUNICKA
p1089
g2
((lp1090
VSVK
p1091
atp1092
Rp1093
sVLinda LEAVER
p1094
g2
((lp1095
VUSA
p1096
atp1097
Rp1098
sVJan CEJVAN
p1099
g2
((lp1100
VISU
p1101
atp1102
Rp1103
sVSteve WINKLER
p1104
g2
((lp1105
VUSA
p1106
atp1107
Rp1108
sVJun OKADA
p1109
g2
((lp1110
VISU
p1111
atp1112
Rp1113
sVSamuel AUXIER
p1114
g2
((lp1115
VUSA
p1116
atp1117
Rp1118
sVVeronique VERRUE
p1119
g2
((lp1120
VFRA
p1121
atp1122
Rp1123
sVSvetlana KANDIBA
p1124
g2
((lp1125
VRUS
p1126
atp1127
Rp1128
sVJulia SEBESTYEN
p1129
g2
((lp1130
VISU
p1131
atp1132
Rp1133
sVEva SZILAGYI
p1134
g2
((lp1135
VISU
p1136
atp1137
Rp1138
sVJoyce D. KOMPERDA
p1139
g2
((lp1140
VUSA
p1141
atp1142
Rp1143
sVLisa JELINEK
p1144
g2
((lp1145
VAUS
p1146
atp1147
Rp1148
sVPatricia HOUGHTON
p1149
g2
((lp1150
VGBR
p1151
atp1152
Rp1153
sVKonstantin KOSTIN
p1154
g2
((lp1155
VISU
p1156
atp1157
Rp1158
sVLudwig CZOCZEK
p1159
g2
((lp1160
VGER
p1161
atp1162
Rp1163
sVMasako KUBOTA
p1164
g2
((lp1165
VJPN
p1166
atp1167
Rp1168
sVSlavka GRINCOVA
p1169
g2
((lp1170
VISU
p1171
atp1172
Rp1173
sVEddy WU
p1174
g2
((lp1175
VTPE
p1176
atp1177
Rp1178
sVIgor FEDCHENKO
p1179
g2
((lp1180
VUKR
p1181
atp1182
Rp1183
sVChihee RHEE
p1184
g2
((lp1185
VKOR
p1186
atp1187
Rp1188
sVNobuo WAKITA
p1189
g2
((lp1190
VJPN
p1191
atp1192
Rp1193
sVSandra WILLIAMSON-LEADLEY
p1194
g2
((lp1195
VNZL
p1196
atp1197
Rp1198
sVLone CHRISTENSEN AMSTRUP
p1199
g2
((lp1200
VISU
p1201
atp1202
Rp1203
sVJulia REY
p1204
g2
((lp1205
VISU
p1206
atp1207
Rp1208
sVAndreas WALDECK
p1209
g2
((lp1210
VGER
p1211
atp1212
Rp1213
sVDaniel HUGENTOBLER
p1214
g2
((lp1215
VISU
p1216
atp1217
Rp1218
sVXander GIJTENBEEK
p1219
g2
((lp1220
VISU
p1221
atp1222
Rp1223
sVTomas KIKA
p1224
g2
((lp1225
VISU
p1226
atp1227
Rp1228
sVAlfred KORYTEK
p1229
g2
((lp1230
VISU
p1231
atp1232
Rp1233
sVAnna CHATZIATHANASSIOU
p1234
g2
((lp1235
VISU
p1236
atp1237
Rp1238
sVJulia ANDREEVA
p1239
g2
((lp1240
VRUS
p1241
atp1242
Rp1243
sVKaren BUTCHER
p1244
g2
((lp1245
VCAN
p1246
atp1247
Rp1248
sVGabor KOLECSANSZKY
p1249
g2
((lp1250
VISU
p1251
atp1252
Rp1253
sVElizabeth LITTLER
p1254
g2
((lp1255
VISU
p1256
atp1257
Rp1258
sVYukiko OKABE
p1259
g2
((lp1260
VJPN
p1261
atp1262
Rp1263
sVYury BALKOV
p1264
g2
((lp1265
VUKR
p1266
atp1267
Rp1268
sVTiziana MORANDI
p1269
g2
((lp1270
VITA
p1271
atp1272
Rp1273
sVMarina SANAIA
p1274
g2
((lp1275
VRUS
p1276
atp1277
Rp1278
sVMyriam LORIOL-OBERWYLER
p1279
g2
((lp1280
VISU
p1281
atp1282
Rp1283
sVMarcin KOZUBEK
p1284
g2
((lp1285
VPOL
p1286
atp1287
Rp1288
sVGavril VELCHEV
p1289
g2
((lp1290
VISU
p1291
atp1292
Rp1293
sVChristine HURTH
p1294
g2
((lp1295
VFRA
p1296
atp1297
Rp1298
sVGeorgi DIMKOV
p1299
g2
((lp1300
VISU
p1301
atp1302
Rp1303
sVGeorg KRUMMENACHER
p1304
g2
((lp1305
VSUI
p1306
atp1307
Rp1308
sVEdith SCHILLER
p1309
g2
((lp1310
VISU
p1311
atp1312
Rp1313
sVSarkis TEWANIAN
p1314
g2
((lp1315
VISU
p1316
atp1317
Rp1318
sVLionel AVOT
p1319
g2
((lp1320
VISU
p1321
atp1322
Rp1323
sVOlga ZAKOVA
p1324
g2
((lp1325
VCZE
p1326
atp1327
Rp1328
sVFlorence VUYLSTEKER
p1329
g2
((lp1330
VFRA
p1331
atp1332
Rp1333
sVClaudia UNGER
p1334
g2
((lp1335
VISU
p1336
atp1337
Rp1338
sVChristel BORGHI
p1339
g2
((lp1340
VISU
p1341
atp1342
Rp1343
sVKaren HOWARD
p1344
g2
((lp1345
VCAN
p1346
atp1347
Rp1348
sVFernand FEDRONIC
p1349
g2
((lp1350
VISU
p1351
atp1352
Rp1353
sVRavi WALIA
p1354
g2
((lp1355
VISU
p1356
atp1357
Rp1358
sVTianyi ZHANG
p1359
g2
((lp1360
VCHN
p1361
atp1362
Rp1363
sVUlf DENZER
p1364
g2
((lp1365
VGER
p1366
atp1367
Rp1368
sVWieland LUEDERS
p1369
g2
((lp1370
VISU
p1371
atp1372
Rp1373
sVZuzana PLESNIKOVA
p1374
g2
((lp1375
VCZE
p1376
atp1377
Rp1378
sVBrett DRURY
p1379
g2
((lp1380
VUSA
p1381
atp1382
Rp1383
sVZanna KULIK
p1384
g2
((lp1385
VEST
p1386
atp1387
Rp1388
sVHeide MARITCZAK
p1389
g2
((lp1390
VAUT
p1391
atp1392
Rp1393
sVHelene CUCUPHAT
p1394
g2
((lp1395
VFRA
p1396
atp1397
Rp1398
sVMarianne HUGUENIN
p1399
g2
((lp1400
VSUI
p1401
atp1402
Rp1403
sVOlga MARKOVA
p1404
g2
((lp1405
VISU
p1406
atp1407
Rp1408
sVDiana BARBACCI LEVY
p1409
g2
((lp1410
VSUI
p1411
atp1412
Rp1413
sVDeveny DECK
p1414
g2
((lp1415
VUSA
p1416
atp1417
Rp1418
sVAnthony LEROY
p1419
g2
((lp1420
VFRA
p1421
atp1422
Rp1423
sVStanislava SMIDOVA
p1424
g2
((lp1425
VCZE
p1426
atp1427
Rp1428
sVSylvain GUIBORD
p1429
g2
((lp1430
VCAN
p1431
atp1432
Rp1433
sVMichael WEBSTER
p1434
g2
((lp1435
VISU
p1436
atp1437
Rp1438
sVWalter TOIGO
p1439
g2
((lp1440
VITA
p1441
atp1442
Rp1443
sVKerstin KIMMINUS
p1444
g2
((lp1445
VGER
p1446
atp1447
Rp1448
sVSeppo KURTTI
p1449
g2
((lp1450
VFIN
p1451
atp1452
Rp1453
sVOlga BARANOVA
p1454
g2
((lp1455
VISU
p1456
atp1457
Rp1458
sVNaotsugu YOSHIHIRO
p1459
g2
((lp1460
VJPN
p1461
atp1462
Rp1463
sVTineke POSNO
p1464
g2
((lp1465
VISU
p1466
atp1467
Rp1468
sVSharon ROGERS
p1469
g2
((lp1470
VUSA
p1471
atp1472
Rp1473
sVPeter CAIN
p1474
g2
((lp1475
VISU
p1476
atp1477
Rp1478
sVScott DAVIS
p1479
g2
((lp1480
VISU
p1481
atp1482
Rp1483
sVYumin WANG
p1484
g2
((lp1485
VCHN
p1486
atp1487
Rp1488
sVFranco BENINI
p1489
g2
((lp1490
VITA
p1491
atp1492
Rp1493
sVSoltan KOKOEV
p1494
g2
((lp1495
VISU
p1496
atp1497
Rp1498
sVRisa HAYAKAWA
p1499
g2
((lp1500
VISU
p1501
atp1502
Rp1503
sVChristopher BUCHANAN
p1504
g2
((lp1505
VGBR
p1506
atp1507
Rp1508
sVFabrizio PEDRAZZINI
p1509
g2
((lp1510
VISU
p1511
atp1512
Rp1513
sVAnna BURVALL
p1514
g2
((lp1515
VISU
p1516
atp1517
Rp1518
sVGuenther TEICHMANN
p1519
g2
((lp1520
VGER
p1521
atp1522
Rp1523
sVWilhelmina VAN VEEN
p1524
g2
((lp1525
VISU
p1526
atp1527
Rp1528
sVGuona ZHAO
p1529
g2
((lp1530
VCHN
p1531
atp1532
Rp1533
sVNikolai SALNIKOV
p1534
g2
((lp1535
VEST
p1536
atp1537
Rp1538
sVKatalin ALPERN
p1539
g2
((lp1540
VISR
p1541
atp1542
Rp1543
sVSasha MARTINEZ
p1544
g2
((lp1545
VMEX
p1546
atp1547
Rp1548
sVFrederic AVOT
p1549
g2
((lp1550
VISU
p1551
atp1552
Rp1553
sVClaudia STAHNKE
p1554
g2
((lp1555
VGER
p1556
atp1557
Rp1558
sVIrina ABSALIAMOVA
p1559
g2
((lp1560
VARM
p1561
aVBLR
p1562
atp1563
Rp1564
sVKaterina MRAZOVA
p1565
g2
((lp1566
VISU
p1567
atp1568
Rp1569
sVInessa MATVEEVA
p1570
g2
((lp1571
VISU
p1572
atp1573
Rp1574
sVZsofia WAGNER
p1575
g2
((lp1576
VHUN
p1577
atp1578
Rp1579
sVJezabel DABOUIS
p1580
g2
((lp1581
VFRA
p1582
atp1583
Rp1584
sVPatrick IBENS
p1585
g2
((lp1586
VBEL
p1587
atp1588
Rp1589
sVPaula M. NAUGHTON
p1590
g2
((lp1591
VUSA
p1592
atp1593
Rp1594
sVMatteo BALLABIO
p1595
g2
((lp1596
VISU
p1597
atp1598
Rp1599
sVMargus HERNITS
p1600
g2
((lp1601
VISU
p1602
atp1603
Rp1604
sVZuzana HOROSCAKOVA
p1605
g2
((lp1606
VISU
p1607
atp1608
Rp1609
sVSandor GALAMBOS
p1610
g2
((lp1611
VISU
p1612
atp1613
Rp1614
sVSuzanne LINDSEY
p1615
g2
((lp1616
VGBR
p1617
atp1618
Rp1619
sVAkos PETHES
p1620
g2
((lp1621
VHUN
p1622
atp1623
Rp1624
sVSaioa SANCHO
p1625
g2
((lp1626
VESP
p1627
atp1628
Rp1629
sVPaolo PIZZOCARI
p1630
g2
((lp1631
VITA
p1632
atp1633
Rp1634
sVAnett POETZSCH
p1635
g2
((lp1636
VISU
p1637
atp1638
Rp1639
sVRonny BANFI
p1640
g2
((lp1641
VISU
p1642
atp1643
Rp1644
sVKaren ARCHER
p1645
g2
((lp1646
VGBR
p1647
atp1648
Rp1649
sVNikolai IANEV
p1650
g2
((lp1651
VBUL
p1652
atp1653
Rp1654
sVMarkus GERMANN
p1655
g2
((lp1656
VSUI
p1657
atp1658
Rp1659
sVJulia DEGENHARDT
p1660
g2
((lp1661
VISU
p1662
atp1663
Rp1664
sVMarie BOWNESS
p1665
g2
((lp1666
VISU
p1667
atp1668
Rp1669
sVMarta OLOZAGARRE
p1670
g2
((lp1671
VESP
p1672
atp1673
Rp1674
sVJung-Sue LEE
p1675
g2
((lp1676
VKOR
p1677
atp1678
Rp1679
sVMelody Tan Tan YIP
p1680
g2
((lp1681
VHKG
p1682
atp1683
Rp1684
sVMark STORTON
p1685
g2
((lp1686
VAUS
p1687
atp1688
Rp1689
sVMarta SENRA
p1690
g2
((lp1691
VISU
p1692
atp1693
Rp1694
sVBruno MARCOTTE
p1695
g2
((lp1696
VISU
p1697
atp1698
Rp1699
sVNicolae BELLU
p1700
g2
((lp1701
VISU
p1702
atp1703
Rp1704
sVWendy LANGTON
p1705
g2
((lp1706
VAUS
p1707
atp1708
Rp1709
sVAttila SOOS
p1710
g2
((lp1711
VHUN
p1712
atp1713
Rp1714
sVVeronique FLEURY
p1715
g2
((lp1716
VISU
p1717
atp1718
Rp1719
sVAndrea GMELIN
p1720
g2
((lp1721
VROM
p1722
atp1723
Rp1724
sVSalome CHIGOGIDZE
p1725
g2
((lp1726
VGEO
p1727
atp1728
Rp1729
sVHal MARRON
p1730
g2
((lp1731
VUSA
p1732
atp1733
Rp1734
sVRaffaella LOCATELLI
p1735
g2
((lp1736
VITA
p1737
atp1738
Rp1739
sVFelicitas BABUSIKOVA
p1740
g2
((lp1741
VISU
p1742
atp1743
Rp1744
sVTomoaki KOYAMA
p1745
g2
((lp1746
VISU
p1747
atp1748
Rp1749
sVInger ANDERSSON
p1750
g2
((lp1751
VSWE
p1752
atp1753
Rp1754
sVIgor BICH
p1755
g2
((lp1756
VISU
p1757
atp1758
Rp1759
sVYanghong ZHAO
p1760
g2
((lp1761
VCHN
p1762
atp1763
Rp1764
sVPirjo UIMONEN
p1765
g2
((lp1766
VISU
p1767
atp1768
Rp1769
sVFabio BIANCHETTI
p1770
g2
((lp1771
VISU
p1772
atp1773
Rp1774
sVMargaret WORSFOLD
p1775
g2
((lp1776
VISU
p1777
atp1778
Rp1779
sVCynthia BENSON
p1780
g2
((lp1781
VCAN
p1782
atp1783
Rp1784
sVLaurene COLLIN-KNOBLAUCH
p1785
g2
((lp1786
VISU
p1787
atp1788
Rp1789
sVBreda MARINSEK
p1790
g2
((lp1791
VSLO
p1792
atp1793
Rp1794
sVFeng HUANG
p1795
g2
((lp1796
VCHN
p1797
atp1798
Rp1799
sVEmiko KITAJI
p1800
g2
((lp1801
VISU
p1802
atp1803
Rp1804
sVVessela POPOVA
p1805
g2
((lp1806
VISU
p1807
atp1808
Rp1809
sVJohn GREENWOOD
p1810
g2
((lp1811
VCAN
p1812
atp1813
Rp1814
sVEbru ANILDI
p1815
g2
((lp1816
VISU
p1817
atp1818
Rp1819
sVAnne HARDY-THOMAS
p1820
g2
((lp1821
VFRA
p1822
atp1823
Rp1824
sVPhilippe MERIGUET
p1825
g2
((lp1826
VFRA
p1827
atp1828
Rp1829
sVZuzana ZACKOVA
p1830
g2
((lp1831
VISU
p1832
atp1833
Rp1834
sVChristiane MILES
p1835
g2
((lp1836
VSUI
p1837
atp1838
Rp1839
sVMaira ABASOVA
p1840
g2
((lp1841
VRUS
p1842
atp1843
Rp1844
sVYibing JIANG
p1845
g2
((lp1846
VCHN
p1847
atp1848
Rp1849
sVNa Young AHN
p1850
g2
((lp1851
VKOR
p1852
atp1853
Rp1854
sVAlexei SHIRSHOV
p1855
g2
((lp1856
VBLR
p1857
atp1858
Rp1859
sVNicole LEBLANC-RICHARD
p1860
g2
((lp1861
VCAN
p1862
atp1863
Rp1864
sVTerry KUBICKA
p1865
g2
((lp1866
VISU
p1867
atp1868
Rp1869
sVLeanna CARON
p1870
g2
((lp1871
VCAN
p1872
atp1873
Rp1874
sVKatarina HENRIKSSON
p1875
g2
((lp1876
VSWE
p1877
atp1878
Rp1879
sVAgnieszka SWIDERSKA
p1880
g2
((lp1881
VISU
p1882
atp1883
Rp1884
sVSo-Young AN
p1885
g2
((lp1886
VKOR
p1887
atp1888
Rp1889
sVTroy GOLDSTEIN
p1890
g2
((lp1891
VISU
p1892
atp1893
Rp1894
sVFlorin GAFENCU
p1895
g2
((lp1896
VISU
p1897
atp1898
Rp1899
sVElizabeth CLARK
p1900
g2
((lp1901
VCAN
p1902
atp1903
Rp1904
sVPeter LEVIN
p1905
g2
((lp1906
VSWE
p1907
atp1908
Rp1909
sVRanko HIRAI
p1910
g2
((lp1911
VISU
p1912
atp1913
Rp1914
sVSaodat NUMANOVA
p1915
g2
((lp1916
VUZB
p1917
atp1918
Rp1919
sVCharles Z. CYR
p1920
g2
((lp1921
VUSA
p1922
atp1923
Rp1924
sVAriadna MORONES NEGRETE
p1925
g2
((lp1926
VISU
p1927
atp1928
Rp1929
sVApril SARGENT
p1930
g2
((lp1931
VISU
p1932
atp1933
Rp1934
sVWeiguang CHEN
p1935
g2
((lp1936
VCHN
p1937
atp1938
Rp1939
sVMona ADOLFSEN
p1940
g2
((lp1941
VISU
p1942
atp1943
Rp1944
sV-
p1945
g2
((lp1946
V-
p1947
atp1948
Rp1949
sVSally REHORICK
p1950
g2
((lp1951
VCAN
p1952
atp1953
Rp1954
sVDarja GABROVSEK-POLAJNAR
p1955
g2
((lp1956
VISU
p1957
atp1958
Rp1959
sVSviatoslav BABENKO
p1960
g2
((lp1961
VRUS
p1962
atp1963
Rp1964
sVClaudia BRAMBATI
p1965
g2
((lp1966
VITA
p1967
atp1968
Rp1969
sVYuri KLIUSHNIKOV
p1970
g2
((lp1971
VUKR
p1972
atp1973
Rp1974
sVNadezhda FIODOROVA
p1975
g2
((lp1976
VISU
p1977
atp1978
Rp1979
sVNenad ORBAN
p1980
g2
((lp1981
VISU
p1982
atp1983
Rp1984
sVTiziana MIORINI
p1985
g2
((lp1986
VITA
p1987
atp1988
Rp1989
sVSakae YAMAMOTO
p1990
g2
((lp1991
VJPN
p1992
atp1993
Rp1994
sVSusan JOHNSON
p1995
g2
((lp1996
VUSA
p1997
atp1998
Rp1999
sVOlga ALEXEEVA
p2000
g2
((lp2001
VISU
p2002
atp2003
Rp2004
sVJanis ENGEL
p2005
g2
((lp2006
VUSA
p2007
atp2008
Rp2009
sVEvgeni ROKHIN
p2010
g2
((lp2011
VUZB
p2012
atp2013
Rp2014
sVYuri GUSKOV
p2015
g2
((lp2016
VKAZ
p2017
atp2018
Rp2019
sVSusan PETRICEVIC
p2020
g2
((lp2021
VISU
p2022
atp2023
Rp2024
sVRoumen JORDANOV
p2025
g2
((lp2026
VISU
p2027
atp2028
Rp2029
sVNicole VAN GERWEN-MAAS
p2030
g2
((lp2031
VISU
p2032
atp2033
Rp2034
sVMateja AVBREHT
p2035
g2
((lp2036
VSLO
p2037
atp2038
Rp2039
sVKaren JONES
p2040
g2
((lp2041
VGBR
p2042
atp2043
Rp2044
sVLarisa FEDOSEEVA
p2045
g2
((lp2046
VISU
p2047
atp2048
Rp2049
sVEkaterina SEROVA
p2050
g2
((lp2051
VISU
p2052
atp2053
Rp2054
sVValerie GRELET LAMBERT
p2055
g2
((lp2056
VFRA
p2057
atp2058
Rp2059
sVSergei BARANOV
p2060
g2
((lp2061
VISU
p2062
atp2063
Rp2064
sVAya YOSHIMURA
p2065
g2
((lp2066
VISU
p2067
atp2068
Rp2069
sVLori DUNN
p2070
g2
((lp2071
VUSA
p2072
atp2073
Rp2074
sVBrigitte WENDT
p2075
g2
((lp2076
VGER
p2077
atp2078
Rp2079
sVRobyn BURLEY
p2080
g2
((lp2081
VISU
p2082
atp2083
Rp2084
sVSteven HSU
p2085
g2
((lp2086
VISU
p2087
atp2088
Rp2089
sVZsuzsanna VIKARNE-HOMOLYA
p2090
g2
((lp2091
VHUN
p2092
atp2093
Rp2094
sVMichael WALDVOGEL
p2095
g2
((lp2096
VISU
p2097
atp2098
Rp2099
sVVanessa GUSMEROLI
p2100
g2
((lp2101
VISU
p2102
atp2103
Rp2104
sVDzianis SAROKIN
p2105
g2
((lp2106
VISU
p2107
atp2108
Rp2109
sVChristl HEIDLER
p2110
g2
((lp2111
VISU
p2112
atp2113
Rp2114
sVKristina LUNDGREN
p2115
g2
((lp2116
VUSA
p2117
atp2118
Rp2119
sVAnnette BOEREN-MAAS
p2120
g2
((lp2121
VISU
p2122
atp2123
Rp2124
sVKazuya SAWADA
p2125
g2
((lp2126
VISU
p2127
atp2128
Rp2129
sVGuangying QIN
p2130
g2
((lp2131
VCHN
p2132
atp2133
Rp2134
sVWanda STANKOVIANSKA
p2135
g2
((lp2136
VISU
p2137
atp2138
Rp2139
sVMalgorzata SOBKOW
p2140
g2
((lp2141
VPOL
p2142
atp2143
Rp2144
sVChristian BAUMANN
p2145
g2
((lp2146
VGER
p2147
atp2148
Rp2149
sVAnne SARASKIN
p2150
g2
((lp2151
VISU
p2152
atp2153
Rp2154
sVLone VILLEFRANCE
p2155
g2
((lp2156
VDEN
p2157
atp2158
Rp2159
sVBenoit LAVOIE
p2160
g2
((lp2161
VCAN
p2162
atp2163
Rp2164
sVMaria MILLER
p2165
g2
((lp2166
VPOL
p2167
atp2168
Rp2169
sVKersten BELLMANN
p2170
g2
((lp2171
VISU
p2172
atp2173
Rp2174
sVRoberts KRUTKRAMELIS
p2175
g2
((lp2176
VISU
p2177
atp2178
Rp2179
sVMassimo ORLANDINI
p2180
g2
((lp2181
VITA
p2182
atp2183
Rp2184
sVMaria HRACHOVCOVA
p2185
g2
((lp2186
VISU
p2187
atp2188
Rp2189
sVWendy ENZMANN
p2190
g2
((lp2191
VUSA
p2192
atp2193
Rp2194
sVSung-Jin BYUN
p2195
g2
((lp2196
VISU
p2197
atp2198
Rp2199
sVPeggy GRAHAM
p2200
g2
((lp2201
VUSA
p2202
atp2203
Rp2204
sVTomie FUKUDOME
p2205
g2
((lp2206
VJPN
p2207
atp2208
Rp2209
sVGale TANGER
p2210
g2
((lp2211
VUSA
p2212
atp2213
Rp2214
sVIrina KOMARNICKA
p2215
g2
((lp2216
VLAT
p2217
atp2218
Rp2219
sVAnastasia PAPAGIANNOPOULOU
p2220
g2
((lp2221
VISU
p2222
atp2223
Rp2224
sVSusan BLATZ
p2225
g2
((lp2226
VCAN
p2227
atp2228
Rp2229
sVDeborah ISLAM
p2230
g2
((lp2231
VCAN
p2232
atp2233
Rp2234
sVSonja MUELLENBACH
p2235
g2
((lp2236
VGER
p2237
atp2238
Rp2239
sVMichael SLIPCHUK
p2240
g2
((lp2241
VISU
p2242
atp2243
Rp2244
sVAndre BOURGEOIS
p2245
g2
((lp2246
VISU
p2247
atp2248
Rp2249
sVMerja HUTTUNEN
p2250
g2
((lp2251
VISU
p2252
atp2253
Rp2254
sVAnn MUSING
p2255
g2
((lp2256
VBEL
p2257
atp2258
Rp2259
sVJean-Bernard HAMEL
p2260
g2
((lp2261
VFRA
p2262
atp2263
Rp2264
sVDaniela TACCANI
p2265
g2
((lp2266
VITA
p2267
atp2268
Rp2269
sVShin AMANO
p2270
g2
((lp2271
VISU
p2272
atp2273
Rp2274
sVRoland MAEDER
p2275
g2
((lp2276
VSUI
p2277
atp2278
Rp2279
sVNatan KFIR
p2280
g2
((lp2281
VISR
p2282
atp2283
Rp2284
sVPierre de LACROIX
p2285
g2
((lp2286
VFRA
p2287
atp2288
Rp2289
sVGyorgy ELEK
p2290
g2
((lp2291
VISU
p2292
atp2293
Rp2294
sVAlexander PENCHEV
p2295
g2
((lp2296
VBUL
p2297
atp2298
Rp2299
sVNatalia PRIMACHENKO
p2300
g2
((lp2301
VRUS
p2302
atp2303
Rp2304
sVHea-Kyung KIM
p2305
g2
((lp2306
VKOR
p2307
atp2308
Rp2309
sVPekka LESKINEN
p2310
g2
((lp2311
VFIN
p2312
atp2313
Rp2314
sVSvetlana LYAPINA
p2315
g2
((lp2316
VISU
p2317
atp2318
Rp2319
sVMarylin KREUZINGER
p2320
g2
((lp2321
VISU
p2322
atp2323
Rp2324
sVTomislav CIZMESIJA
p2325
g2
((lp2326
VISU
p2327
atp2328
Rp2329
sVLorna SCHRODER
p2330
g2
((lp2331
VCAN
p2332
atp2333
Rp2334
sVEun-Hee LEE
p2335
g2
((lp2336
VISU
p2337
atp2338
Rp2339
sVFrancesca FERMI
p2340
g2
((lp2341
VISU
p2342
atp2343
Rp2344
sVJennifer MAST
p2345
g2
((lp2346
VUSA
p2347
atp2348
Rp2349
sVAnastassia MAKAROVA
p2350
g2
((lp2351
VUKR
p2352
atp2353
Rp2354
sVSusan LYNCH
p2355
g2
((lp2356
VISU
p2357
atp2358
Rp2359
sVGilberto VIADANA
p2360
g2
((lp2361
VISU
p2362
atp2363
Rp2364
sVNoriko SHIROTA
p2365
g2
((lp2366
VJPN
p2367
atp2368
Rp2369
sVEniko BERKES
p2370
g2
((lp2371
VISU
p2372
atp2373
Rp2374
sVKaoru TAKINO
p2375
g2
((lp2376
VJPN
p2377
atp2378
Rp2379
sVElke TREITZ
p2380
g2
((lp2381
VGER
p2382
atp2383
Rp2384
sVCatherine L. TAYLOR
p2385
g2
((lp2386
VAUS
p2387
atp2388
Rp2389
sVFrancis BETSCH
p2390
g2
((lp2391
VFRA
p2392
atp2393
Rp2394
sVRobert ROSENBLUTH
p2395
g2
((lp2396
VUSA
p2397
atp2398
Rp2399
sVEvgenia KARNOLSKA
p2400
g2
((lp2401
VBUL
p2402
atp2403
Rp2404
sVTamie K. CAMPBELL
p2405
g2
((lp2406
VUSA
p2407
atp2408
Rp2409
sVMalgorzata GRAJCAR
p2410
g2
((lp2411
VISU
p2412
atp2413
Rp2414
sVIngrid Charlotte WOLTER
p2415
g2
((lp2416
VGER
p2417
atp2418
Rp2419
sVIris PAUL
p2420
g2
((lp2421
VISU
p2422
atp2423
Rp2424
sVKaterina KAMBERSKA
p2425
g2
((lp2426
VISU
p2427
atp2428
Rp2429
sVSandrine COLLEONI
p2430
g2
((lp2431
VFRA
p2432
atp2433
Rp2434
sVMasako KAWAI
p2435
g2
((lp2436
VISU
p2437
atp2438
Rp2439
sVPatrik BRECHT
p2440
g2
((lp2441
VSUI
p2442
atp2443
Rp2444
sVLeo  LENKOLA
p2445
g2
((lp2446
VFIN
p2447
atp2448
Rp2449
sVMaria OLESINSKA
p2450
g2
((lp2451
VPOL
p2452
atp2453
Rp2454
sVMayumi KATO
p2455
g2
((lp2456
VJPN
p2457
atp2458
Rp2459
sVZoia JORDANOVA
p2460
g2
((lp2461
VBUL
p2462
atp2463
Rp2464
sVHely ABBONDATI
p2465
g2
((lp2466
VFIN
p2467
atp2468
Rp2469
sVDavid MUNOZ
p2470
g2
((lp2471
VESP
p2472
atp2473
Rp2474
sVGloria MORANDI
p2475
g2
((lp2476
VITA
p2477
atp2478
Rp2479
sVAlla SHEKHOVTSEVA
p2480
g2
((lp2481
VRUS
p2482
atp2483
Rp2484
sVLolita LABUNSKAIYA
p2485
g2
((lp2486
VRUS
p2487
aVUKR
p2488
atp2489
Rp2490
sVAnu NIINIRANTA
p2491
g2
((lp2492
VISU
p2493
atp2494
Rp2495
sVKatarina GROF MITROVIC
p2496
g2
((lp2497
VISU
p2498
atp2499
Rp2500
sVDonatella LEONELLI
p2501
g2
((lp2502
VISU
p2503
atp2504
Rp2505
sVPirjo ELO
p2506
g2
((lp2507
VFIN
p2508
atp2509
Rp2510
sVAlbert ZAYDMAN
p2511
g2
((lp2512
VISR
p2513
atp2514
Rp2515
sVMakoto KANO
p2516
g2
((lp2517
VJPN
p2518
atp2519
Rp2520
sVAna-Maria SARE
p2521
g2
((lp2522
VCRO
p2523
atp2524
Rp2525
sVKathleen HARMON
p2526
g2
((lp2527
VUSA
p2528
atp2529
Rp2530
sVAllan BOEHM
p2531
g2
((lp2532
VSVK
p2533
atp2534
Rp2535
sVMami MAEDA
p2536
g2
((lp2537
VJPN
p2538
atp2539
Rp2540
sVRossella CECCATTINI
p2541
g2
((lp2542
VITA
p2543
atp2544
Rp2545
sVYaqin JI
p2546
g2
((lp2547
VCHN
p2548
atp2549
Rp2550
sVJoan H. GRUBER
p2551
g2
((lp2552
VUSA
p2553
atp2554
Rp2555
sVMarina BESCHEA
p2556
g2
((lp2557
VROM
p2558
atp2559
Rp2560
sVHermann SCHULZ
p2561
g2
((lp2562
VGER
p2563
atp2564
Rp2565
sVIrina KIREEVA
p2566
g2
((lp2567
VAZE
p2568
atp2569
Rp2570
sVElena SAVOSTOVA
p2571
g2
((lp2572
VISU
p2573
atp2574
Rp2575
sVYou-Hwa LEE
p2576
g2
((lp2577
VKOR
p2578
atp2579
Rp2580
sVVeronique TOLAZZI
p2581
g2
((lp2582
VFRA
p2583
atp2584
Rp2585
sVBettina MEIER
p2586
g2
((lp2587
VSUI
p2588
atp2589
Rp2590
sVIgor OBRAZTSOV
p2591
g2
((lp2592
VRUS
p2593
atp2594
Rp2595
sVVera TAUCHMANOVA
p2596
g2
((lp2597
VCZE
p2598
atp2599
Rp2600
sVNicole MAAS
p2601
g2
((lp2602
VNED
p2603
atp2604
Rp2605
sVMaria TUMANOVSKAYA-CHAIKA
p2606
g2
((lp2607
VISU
p2608
atp2609
Rp2610
sVChrista GUNSAM
p2611
g2
((lp2612
VISU
p2613
atp2614
Rp2615
sVNatasa SKOK
p2616
g2
((lp2617
VSLO
p2618
atp2619
Rp2620
sVTaffy HOLLIDAY
p2621
g2
((lp2622
VUSA
p2623
atp2624
Rp2625
sVMonica MACDONALD
p2626
g2
((lp2627
VISU
p2628
atp2629
Rp2630
sVJanice HUNTER
p2631
g2
((lp2632
VCAN
p2633
atp2634
Rp2635
sVAnne CAMMETT
p2636
g2
((lp2637
VUSA
p2638
atp2639
Rp2640
sVMarco BUTTARELLI
p2641
g2
((lp2642
VITA
p2643
atp2644
Rp2645
sVIstvan SUGAR
p2646
g2
((lp2647
VHUN
p2648
atp2649
Rp2650
sVHeinz-Ulrich WALTHER
p2651
g2
((lp2652
VGER
p2653
atp2654
Rp2655
sVWei SHI
p2656
g2
((lp2657
VCHN
p2658
atp2659
Rp2660
sVLone AMSTRUP LINNEMANN
p2661
g2
((lp2662
VDEN
p2663
atp2664
Rp2665
sVRobyn S. NOTT
p2666
g2
((lp2667
VISU
p2668
atp2669
Rp2670
sVMatjaz KRUSEC
p2671
g2
((lp2672
VSLO
p2673
atp2674
Rp2675
sVFan YANG
p2676
g2
((lp2677
VCHN
p2678
atp2679
Rp2680
sVSophie SCHMITT
p2681
g2
((lp2682
VFRA
p2683
atp2684
Rp2685
sVJae-Eun CHUNG
p2686
g2
((lp2687
VISU
p2688
atp2689
Rp2690
sVLeena KURRI
p2691
g2
((lp2692
VFIN
p2693
atp2694
Rp2695
sVJoseph L. INMAN
p2696
g2
((lp2697
VUSA
p2698
atp2699
Rp2700
sVMaria BAEKGAARD KJAER
p2701
g2
((lp2702
VISU
p2703
atp2704
Rp2705
sVIvana JAKUPCEVIC
p2706
g2
((lp2707
VISU
p2708
atp2709
Rp2710
sVTodd BROMLEY
p2711
g2
((lp2712
VUSA
p2713
atp2714
Rp2715
sVSylwia NOWAK-TREBACKA
p2716
g2
((lp2717
VISU
p2718
atp2719
Rp2720
sVFlorence CATRY DE SURMONT
p2721
g2
((lp2722
VFRA
p2723
atp2724
Rp2725
sVShizuko UGAKI
p2726
g2
((lp2727
VJPN
p2728
atp2729
Rp2730
sVRaoul LEBLANC
p2731
g2
((lp2732
VISU
p2733
atp2734
Rp2735
sVMaria MCLEAN
p2736
g2
((lp2737
VISU
p2738
atp2739
Rp2740
sVHongguo REN
p2741
g2
((lp2742
VCHN
p2743
atp2744
Rp2745
sVAlexei URMANOV
p2746
g2
((lp2747
VISU
p2748
atp2749
Rp2750
sVPamela CHISLETT
p2751
g2
((lp2752
VISU
p2753
atp2754
Rp2755
sVDiana STEVENS
p2756
g2
((lp2757
VISU
p2758
atp2759
Rp2760
sVThierry MONMINOUX
p2761
g2
((lp2762
VFRA
p2763
atp2764
Rp2765
sVHye-Kyung LIM
p2766
g2
((lp2767
VKOR
p2768
atp2769
Rp2770
sVHelmut SIEBER
p2771
g2
((lp2772
VISU
p2773
atp2774
Rp2775
sVHerbert HOLIK
p2776
g2
((lp2777
VISU
p2778
atp2779
Rp2780
sVPhilippe MAITROT
p2781
g2
((lp2782
VFRA
p2783
atp2784
Rp2785
sVBernhard JUST
p2786
g2
((lp2787
VISU
p2788
atp2789
Rp2790
sVViktor PETRENKO
p2791
g2
((lp2792
VISU
p2793
atp2794
Rp2795
sVWhitney GAYNOR
p2796
g2
((lp2797
VISU
p2798
atp2799
Rp2800
sVKatalin BALCZO
p2801
g2
((lp2802
VHUN
p2803
atp2804
Rp2805
sVErnestien BAKKER
p2806
g2
((lp2807
VISU
p2808
atp2809
Rp2810
sVJyrina LORENZ
p2811
g2
((lp2812
VISU
p2813
atp2814
Rp2815
sVShae ZUKIWSKY
p2816
g2
((lp2817
VISU
p2818
atp2819
Rp2820
sVLaurent CARRIERE
p2821
g2
((lp2822
VFRA
p2823
atp2824
Rp2825
sVJayson PEACE
p2826
g2
((lp2827
VISU
p2828
atp2829
Rp2830
sVMichelle COLLETT
p2831
g2
((lp2832
VGBR
p2833
atp2834
Rp2835
sVLise ROSTO JENSEN
p2836
g2
((lp2837
VNOR
p2838
atp2839
Rp2840
sVThomas HECK
p2841
g2
((lp2842
VGER
p2843
atp2844
Rp2845
sVSung-Hee KOH
p2846
g2
((lp2847
VKOR
p2848
atp2849
Rp2850
sVChristiane MOERTH
p2851
g2
((lp2852
VAUT
p2853
atp2854
Rp2855
sVMiroslav MISUREC
p2856
g2
((lp2857
VCZE
p2858
atp2859
Rp2860
sVPatricia MORITZ
p2861
g2
((lp2862
VAUS
p2863
atp2864
Rp2865
sVIsabel DUVAL DE NAVARRE
p2866
g2
((lp2867
VISU
p2868
atp2869
Rp2870
sVRonald BEAU
p2871
g2
((lp2872
VFRA
p2873
atp2874
Rp2875
sVVirginia DE AGOSTINI
p2876
g2
((lp2877
VITA
p2878
atp2879
Rp2880
sVVerena DIENER
p2881
g2
((lp2882
VISU
p2883
atp2884
Rp2885
sVDeborah CURRIE
p2886
g2
((lp2887
VUSA
p2888
atp2889
Rp2890
sVKo-Man TING
p2891
g2
((lp2892
VISU
p2893
atp2894
Rp2895
sVAsa NORDBACK
p2896
g2
((lp2897
VSWE
p2898
atp2899
Rp2900
sVElena LISOVA
p2901
g2
((lp2902
VUKR
p2903
atp2904
Rp2905
sVPatricia S. FRENCH
p2906
g2
((lp2907
VISU
p2908
atp2909
Rp2910
sVKenji AMAKO
p2911
g2
((lp2912
VJPN
p2913
atp2914
Rp2915
sVAlexander KOGAN
p2916
g2
((lp2917
VRUS
p2918
atp2919
Rp2920
sVJeroen PRINS
p2921
g2
((lp2922
VNED
p2923
atp2924
Rp2925
sVGilles VANDENBROECK
p2926
g2
((lp2927
VFRA
p2928
atp2929
Rp2930
sVYury KLIUSHNIKOV
p2931
g2
((lp2932
VUKR
p2933
atp2934
Rp2935
sVSimone MOORE
p2936
g2
((lp2937
VISU
p2938
atp2939
Rp2940
sVMakoto OKAZAKI
p2941
g2
((lp2942
VISU
p2943
atp2944
Rp2945
sVElizabeth CAIN
p2946
g2
((lp2947
VISU
p2948
atp2949
Rp2950
sVAyumi KOZUKA
p2951
g2
((lp2952
VJPN
p2953
atp2954
Rp2955
sVLine KALDESTAD
p2956
g2
((lp2957
VISU
p2958
atp2959
Rp2960
sVDanuta DUBROWKO
p2961
g2
((lp2962
VPOL
p2963
atp2964
Rp2965
sVBrad COX
p2966
g2
((lp2967
VISU
p2968
atp2969
Rp2970
sVUrsula STAHL
p2971
g2
((lp2972
VAUT
p2973
atp2974
Rp2975
sVDaniel DELFA
p2976
g2
((lp2977
VESP
p2978
atp2979
Rp2980
sVMichela CESARO
p2981
g2
((lp2982
VITA
p2983
atp2984
Rp2985
sVChristine BLANC
p2986
g2
((lp2987
VSUI
p2988
atp2989
Rp2990
sVTatiana DANILENKO
p2991
g2
((lp2992
VRUS
p2993
atp2994
Rp2995
sVElena BURIAK
p2996
g2
((lp2997
VRUS
p2998
atp2999
Rp3000
sVDan CHEN
p3001
g2
((lp3002
VHKG
p3003
atp3004
Rp3005
s.