(dp0
VBeth CRANE
p1
c__builtin__
set
p2
((lp3
VCAN
p4
atp5
Rp6
sVAlexandre GOROJDANOV
p7
g2
((lp8
VBLR
p9
atp10
Rp11
sVNicholas RUSSELL
p12
g2
((lp13
VGBR
p14
atp15
Rp16
sVTodd SAND
p17
g2
((lp18
tp19
Rp20
sVReinhard MIRMSEKER
p21
g2
((lp22
tp23
Rp24
sVSimon BRIGGS
p25
g2
((lp26
tp27
Rp28
sVPeter DURNEV
p29
g2
((lp30
VISU
p31
atp32
Rp33
sVRoland WEHINGER
p34
g2
((lp35
VSUI
p36
atp37
Rp38
sVKarin EHRHARDT
p39
g2
((lp40
VAUT
p41
atp42
Rp43
sVXixia LIU
p44
g2
((lp45
VCHN
p46
atp47
Rp48
sVJimmy YOUNG
p49
g2
((lp50
tp51
Rp52
sVOsman SIRVAN
p53
g2
((lp54
tp55
Rp56
sVValerie LAMBERT
p57
g2
((lp58
VFRA
p59
atp60
Rp61
sVClaire SHEPHERD
p62
g2
((lp63
VGBR
p64
atp65
Rp66
sVElisabeth LOUESDON
p67
g2
((lp68
VFRA
p69
atp70
Rp71
sVDan FANG
p72
g2
((lp73
VCHN
p74
atp75
Rp76
sVDavid MOLINA
p77
g2
((lp78
VFRA
p79
atp80
Rp81
sVLaimute KRAUZIENE
p82
g2
((lp83
VLTU
p84
atp85
Rp86
sVTomiko YAMADA
p87
g2
((lp88
VJPN
p89
atp90
Rp91
sVRobert J. HOREN
p92
g2
((lp93
tp94
Rp95
sVPrisca BINZ-MOSER
p96
g2
((lp97
VSUI
p98
atp99
Rp100
sVIrina MEDVEDEVA
p101
g2
((lp102
VUKR
p103
aVAZE
p104
atp105
Rp106
sVKrunoslava CUMIC
p107
g2
((lp108
tp109
Rp110
sVNatalia LEBEDEVA
p111
g2
((lp112
tp113
Rp114
sVKvetoslava MATEJOVA
p115
g2
((lp116
tp117
Rp118
sVVladimir CUCHRAN
p119
g2
((lp120
tp121
Rp122
sVAnne G. SHEAN
p123
g2
((lp124
VUSA
p125
atp126
Rp127
sVThomas BIEGLER
p128
g2
((lp129
tp130
Rp131
sVAlexander KOENIG
p132
g2
((lp133
tp134
Rp135
sVAlexander KUZNETSOV
p136
g2
((lp137
tp138
Rp139
sVIgor ZAVOZIN
p140
g2
((lp141
VARM
p142
atp143
Rp144
sVTanay OZKAN
p145
g2
((lp146
VTUR
p147
atp148
Rp149
sVOlga KOZHEMIAKINA
p150
g2
((lp151
VRUS
p152
atp153
Rp154
sVDavid SANTEE
p155
g2
((lp156
tp157
Rp158
sVAgita ABELE
p159
g2
((lp160
VLAT
p161
atp162
Rp163
sVLeena LAAKSONEN
p164
g2
((lp165
VFIN
p166
atp167
Rp168
sVDavid KIRBY
p169
g2
((lp170
tp171
Rp172
sVAlexander LAKERNIK
p173
g2
((lp174
tp175
Rp176
sVHailan JIANG
p177
g2
((lp178
VCHN
p179
atp180
Rp181
sVRichard KOSINA
p182
g2
((lp183
VCZE
p184
atp185
Rp186
sVGarry HOPPE
p187
g2
((lp188
VISR
p189
aVGBR
p190
atp191
Rp192
sVJarmila PORTOVA
p193
g2
((lp194
VCZE
p195
atp196
Rp197
sVSlobodan DELIC
p198
g2
((lp199
VGRE
p200
atp201
Rp202
sVHilary SELBY
p203
g2
((lp204
VGBR
p205
atp206
Rp207
sVAnn FINDLAY
p208
g2
((lp209
tp210
Rp211
sVOdette COULSON
p212
g2
((lp213
tp214
Rp215
sVRichard GRAINGE
p216
g2
((lp217
VGBR
p218
atp219
Rp220
sVAnne FAGERSTROM
p221
g2
((lp222
tp223
Rp224
sVJulia SEMJONOVA
p225
g2
((lp226
VEST
p227
atp228
Rp229
sVMarketa HORKLOVA
p230
g2
((lp231
VCZE
p232
atp233
Rp234
sVIsabella MICHELI
p235
g2
((lp236
VITA
p237
atp238
Rp239
sVTsuguhiko KOZUKA
p240
g2
((lp241
VJPN
p242
atp243
Rp244
sVRoxane PETETIN
p245
g2
((lp246
tp247
Rp248
sVIgor PASHKEVICH
p249
g2
((lp250
tp251
Rp252
sVRaimo REINSALU
p253
g2
((lp254
VEST
p255
atp256
Rp257
sVMichela MALINGAMBI
p258
g2
((lp259
VITA
p260
atp261
Rp262
sVAnna SIEROCKA
p263
g2
((lp264
VPOL
p265
atp266
Rp267
sVOlga GILARDINI
p268
g2
((lp269
tp270
Rp271
sVJohn COLE
p272
g2
((lp273
VUSA
p274
atp275
Rp276
sVRita ZONNEKEYN
p277
g2
((lp278
VBEL
p279
atp280
Rp281
sVJan HOFFMANN
p282
g2
((lp283
VGER
p284
atp285
Rp286
sVIkuko ISHIKAWA
p287
g2
((lp288
tp289
Rp290
sVHelle CARLSEN
p291
g2
((lp292
VISU
p293
atp294
Rp295
sVSergei PONOMARENKO
p296
g2
((lp297
tp298
Rp299
sVJiasheng YANG
p300
g2
((lp301
VCHN
p302
atp303
Rp304
sVKristina HOUWING
p305
g2
((lp306
VSWE
p307
atp308
Rp309
sVFrancoise DE RAPPARD
p310
g2
((lp311
VBEL
p312
atp313
Rp314
sVMika SAARELAINEN
p315
g2
((lp316
VFIN
p317
atp318
Rp319
sVGalit CHAIT-MORACCI
p320
g2
((lp321
tp322
Rp323
sVAyako HIGASHINO
p324
g2
((lp325
tp326
Rp327
sVEvgeny MARTYNOV
p328
g2
((lp329
tp330
Rp331
sVHanna THEN
p332
g2
((lp333
tp334
Rp335
sVLorrie PARKER
p336
g2
((lp337
VUSA
p338
atp339
Rp340
sVAntica GRUBISIC
p341
g2
((lp342
VCRO
p343
atp344
Rp345
sVKylie Anne YACOPETTI
p346
g2
((lp347
VAUS
p348
atp349
Rp350
sVJason DUNGJEN
p351
g2
((lp352
tp353
Rp354
sVCsaba BALINT
p355
g2
((lp356
VHUN
p357
atp358
Rp359
sVDingding LIU
p360
g2
((lp361
tp362
Rp363
sVAndrea TRNKOVA-KUNCOVA
p364
g2
((lp365
tp366
Rp367
sVYing ZHAO
p368
g2
((lp369
VCHN
p370
atp371
Rp372
sVSusanne WAHLSTROM
p373
g2
((lp374
VSWE
p375
atp376
Rp377
sVUbavka KUTINOU-NOVAKOVIC
p378
g2
((lp379
tp380
Rp381
sVDaniela CAVELLI
p382
g2
((lp383
tp384
Rp385
sVJana BAUDYSOVA
p386
g2
((lp387
VCZE
p388
atp389
Rp390
sVTeri SEDEJ
p391
g2
((lp392
VSLO
p393
atp394
Rp395
sVWilliam S. SMITH
p396
g2
((lp397
VUSA
p398
atp399
Rp400
sVAndre-Marc ALLAIN
p401
g2
((lp402
VCAN
p403
atp404
Rp405
sVKelly CRUICKSHANK
p406
g2
((lp407
tp408
Rp409
sVStefan GRAMPELHUBER
p410
g2
((lp411
VAUT
p412
atp413
Rp414
sVYoshiko KOBAYASHI
p415
g2
((lp416
VJPN
p417
atp418
Rp419
sVJoanna MILLER
p420
g2
((lp421
tp422
Rp423
sVReaghan FAWCETT
p424
g2
((lp425
VCAN
p426
atp427
Rp428
sVLovorka KODRIN
p429
g2
((lp430
tp431
Rp432
sVDavid MOELLENKAMP
p433
g2
((lp434
tp435
Rp436
sVLynne DEY
p437
g2
((lp438
VCAN
p439
atp440
Rp441
sVHelle LYNGBERG
p442
g2
((lp443
tp444
Rp445
sVAniela HEBEL-SZMAK
p446
g2
((lp447
VPOL
p448
atp449
Rp450
sVAnna KANTOR
p451
g2
((lp452
VISR
p453
atp454
Rp455
sVJozica PODBEVESEK
p456
g2
((lp457
tp458
Rp459
sVAkira YOSHIZAWA
p460
g2
((lp461
VJPN
p462
atp463
Rp464
sVTatiana SHARKINA
p465
g2
((lp466
VRUS
p467
atp468
Rp469
sVErica SONDEREGGER
p470
g2
((lp471
tp472
Rp473
sVEkrem MALKOC
p474
g2
((lp475
VTUR
p476
atp477
Rp478
sVZsofia KULCZAR
p479
g2
((lp480
tp481
Rp482
sVValerie GREUGNY-HUART
p483
g2
((lp484
VFRA
p485
atp486
Rp487
sVRoger GLENN
p488
g2
((lp489
VUSA
p490
atp491
Rp492
sVEva MARTINEK
p493
g2
((lp494
tp495
Rp496
sVSakiko OKANO
p497
g2
((lp498
VJPN
p499
atp500
Rp501
sVDoug WILLIAMS
p502
g2
((lp503
VUSA
p504
atp505
Rp506
sVValery MAKSAEV
p507
g2
((lp508
tp509
Rp510
sVIrina NECHKINA
p511
g2
((lp512
VAZE
p513
atp514
Rp515
sVHermi OTTEMANN
p516
g2
((lp517
tp518
Rp519
sVTatiana YORDANOVA
p520
g2
((lp521
VBUL
p522
atp523
Rp524
sVZoltan JANOSI
p525
g2
((lp526
tp527
Rp528
sVKari-Anne OLSEN
p529
g2
((lp530
VNOR
p531
atp532
Rp533
sVJohn MILLIER
p534
g2
((lp535
VUSA
p536
atp537
Rp538
sVDaniel DE PAIX DE COEUR
p539
g2
((lp540
VFRA
p541
atp542
Rp543
sVShawn RETTSTATT
p544
g2
((lp545
VUSA
p546
atp547
Rp548
sVSzilard TOTH
p549
g2
((lp550
VHUN
p551
atp552
Rp553
sVEvelyn ROSSOUKHI-SCHNEIDER
p554
g2
((lp555
tp556
Rp557
sVAdriana ORDEANU
p558
g2
((lp559
VROM
p560
atp561
Rp562
sVAgnes MORVAI-KOVECSES
p563
g2
((lp564
VHUN
p565
atp566
Rp567
sVKadi ZVIRIK
p568
g2
((lp569
VEST
p570
atp571
Rp572
sVMariusz SIUDEK
p573
g2
((lp574
tp575
Rp576
sVJodi ABBOTT
p577
g2
((lp578
VCAN
p579
atp580
Rp581
sVAlexandra FORD
p582
g2
((lp583
VAUS
p584
atp585
Rp586
sVRichard DALLEY
p587
g2
((lp588
VUSA
p589
atp590
Rp591
sVDeborah NOYES
p592
g2
((lp593
tp594
Rp595
sVMarjo KANKAANRANTA
p596
g2
((lp597
VFIN
p598
atp599
Rp600
sVNadezhda PARETSKAIA
p601
g2
((lp602
VKAZ
p603
atp604
Rp605
sVJanet COTON
p606
g2
((lp607
VGBR
p608
atp609
Rp610
sVNeil GARRARD
p611
g2
((lp612
tp613
Rp614
sVFrancois WAITZMAN
p615
g2
((lp616
VFRA
p617
atp618
Rp619
sVMarion KRIJGSMAN
p620
g2
((lp621
VISU
p622
atp623
Rp624
sVSteve MUFF
p625
g2
((lp626
tp627
Rp628
sVWalter ZUCCARO
p629
g2
((lp630
VITA
p631
atp632
Rp633
sVLisa ERVIN-BAUDO
p634
g2
((lp635
tp636
Rp637
sVMartin PAULMICHL
p638
g2
((lp639
tp640
Rp641
sVRicardo OLAVARRIETA
p642
g2
((lp643
tp644
Rp645
sVUlla FAIG
p646
g2
((lp647
VGER
p648
atp649
Rp650
sVKitty DELIO-LAFORTE
p651
g2
((lp652
VUSA
p653
atp654
Rp655
sVKyung-Won SAKONG
p656
g2
((lp657
VKOR
p658
atp659
Rp660
sVVladimir PETRENKO
p661
g2
((lp662
tp663
Rp664
sVYu WANG
p665
g2
((lp666
VCHN
p667
atp668
Rp669
sVTed BARTON
p670
g2
((lp671
tp672
Rp673
sVVanessa RILEY
p674
g2
((lp675
tp676
Rp677
sVIgor DOLGUSHIN
p678
g2
((lp679
VRUS
p680
atp681
Rp682
sVJudy BLUMBERG
p683
g2
((lp684
tp685
Rp686
sVAngelique CLYDE-SMITH
p687
g2
((lp688
VAUS
p689
atp690
Rp691
sVMieko FUJIMORI
p692
g2
((lp693
VJPN
p694
atp695
Rp696
sVAlan BLINN
p697
g2
((lp698
VAUS
p699
atp700
Rp701
sVEmilie BILLOW
p702
g2
((lp703
VSWE
p704
atp705
Rp706
sVJia YAO
p707
g2
((lp708
VCHN
p709
atp710
Rp711
sVRolf PIPOH
p712
g2
((lp713
VGER
p714
atp715
Rp716
sVThomas RAUER
p717
g2
((lp718
tp719
Rp720
sVVirpi KUNNAS-HELMINEN
p721
g2
((lp722
tp723
Rp724
sVBirgit FOELL
p725
g2
((lp726
tp727
Rp728
sVRaisa GAGARINA
p729
g2
((lp730
VUZB
p731
atp732
Rp733
sVMargo PAUW
p734
g2
((lp735
tp736
Rp737
sVMeiko SASAKI
p738
g2
((lp739
VJPN
p740
atp741
Rp742
sVAnn SHAW
p743
g2
((lp744
VCAN
p745
atp746
Rp747
sVNobuhiko YOSHIOKA
p748
g2
((lp749
VJPN
p750
atp751
Rp752
sVPeter RANKIN
p753
g2
((lp754
VAUS
p755
atp756
Rp757
sVDenis SAMOKHIN
p758
g2
((lp759
VISU
p760
atp761
Rp762
sVCamilla FREDMAN
p763
g2
((lp764
VSWE
p765
atp766
Rp767
sVMagdalena RUSIECKA
p768
g2
((lp769
tp770
Rp771
sVClaudia FASSORA
p772
g2
((lp773
VSUI
p774
atp775
Rp776
sVLaura MCNAIR
p777
g2
((lp778
tp779
Rp780
sVCoco SHEAN
p781
g2
((lp782
VISU
p783
atp784
Rp785
sVLorenzo MAGRI
p786
g2
((lp787
tp788
Rp789
sVAnn HARDY-THOMAS
p790
g2
((lp791
VISU
p792
atp793
Rp794
sVEugen LARASSER
p795
g2
((lp796
tp797
Rp798
sVJamie MCGRIGOR
p799
g2
((lp800
tp801
Rp802
sVSissy KRICK
p803
g2
((lp804
VGER
p805
atp806
Rp807
sVLeslie KEEN
p808
g2
((lp809
VCAN
p810
atp811
Rp812
sVAndrea DERBY
p813
g2
((lp814
VCAN
p815
atp816
Rp817
sVPeeter LAUR
p818
g2
((lp819
tp820
Rp821
sVRaia BISSEROVA-BAKALOVA
p822
g2
((lp823
VBUL
p824
atp825
Rp826
sVAnja RIST
p827
g2
((lp828
VGER
p829
atp830
Rp831
sVNicole ENDRESS
p832
g2
((lp833
tp834
Rp835
sVBeatrice PFISTER
p836
g2
((lp837
VSUI
p838
atp839
Rp840
sVRock LEMAY
p841
g2
((lp842
tp843
Rp844
sVJean SENFT
p845
g2
((lp846
VCAN
p847
atp848
Rp849
sVAngelo DOLFINI
p850
g2
((lp851
tp852
Rp853
sVHalina GORDON-POLTORAK
p854
g2
((lp855
VPOL
p856
atp857
Rp858
sVVolker WALDECK
p859
g2
((lp860
VGER
p861
atp862
Rp863
sVWilliam THOMPSON
p864
g2
((lp865
VCAN
p866
atp867
Rp868
sVAlexei BELETSKI
p869
g2
((lp870
VISR
p871
atp872
Rp873
sVReiko OGAWA
p874
g2
((lp875
VJPN
p876
atp877
Rp878
sVBerit AARNES
p879
g2
((lp880
tp881
Rp882
sVIgor PROKOP
p883
g2
((lp884
tp885
Rp886
sVSusan HEFFERNAN
p887
g2
((lp888
VCAN
p889
atp890
Rp891
sVSimonetta SPALLUTO
p892
g2
((lp893
VITA
p894
atp895
Rp896
sVElizabeth RYAN
p897
g2
((lp898
VAUS
p899
atp900
Rp901
sVAdriana DOMANSKA
p902
g2
((lp903
VSVK
p904
atp905
Rp906
sVDagmar LURZ-PROTT
p907
g2
((lp908
VGER
p909
atp910
Rp911
sVMonika KUSTAROVA
p912
g2
((lp913
tp914
Rp915
sVJeff LUKASIK
p916
g2
((lp917
VCAN
p918
atp919
Rp920
sVSenem AHISKAL
p921
g2
((lp922
tp923
Rp924
sVMichael HOPFES
p925
g2
((lp926
tp927
Rp928
sVMona JONSSON
p929
g2
((lp930
VSWE
p931
atp932
Rp933
sVFranca BIANCONI
p934
g2
((lp935
tp936
Rp937
sVAlexandr GORSHKOV
p938
g2
((lp939
tp940
Rp941
sVAndrzej DOSTATNI
p942
g2
((lp943
tp944
Rp945
sVAigul KUANISHEVA
p946
g2
((lp947
VKAZ
p948
atp949
Rp950
sVLudmila MIKHAILOVSKAYA
p951
g2
((lp952
VUKR
p953
atp954
Rp955
sVAlice WALDER
p956
g2
((lp957
VSUI
p958
atp959
Rp960
sVTarja RISTANEN
p961
g2
((lp962
VFIN
p963
atp964
Rp965
sVElisabeth BINDER
p966
g2
((lp967
tp968
Rp969
sVMarika HUMPHREYS-BARANOVA
p970
g2
((lp971
tp972
Rp973
sVRichard OSTIGUY
p974
g2
((lp975
tp976
Rp977
sVMerja KOSONEN
p978
g2
((lp979
VFIN
p980
atp981
Rp982
sVVladislav PETUKHOV
p983
g2
((lp984
VUKR
p985
atp986
Rp987
sVNatalia KRUGLOVA
p988
g2
((lp989
VUKR
p990
atp991
Rp992
sVElena FOMINA
p993
g2
((lp994
VRUS
p995
atp996
Rp997
sVJunko HIRAMATSU
p998
g2
((lp999
tp1000
Rp1001
sVNatalie TAYLOR
p1002
g2
((lp1003
VAUS
p1004
atp1005
Rp1006
sVLenka BOHUNICKA
p1007
g2
((lp1008
VSVK
p1009
atp1010
Rp1011
sVLinda LEAVER
p1012
g2
((lp1013
VUSA
p1014
atp1015
Rp1016
sVJan CEJVAN
p1017
g2
((lp1018
tp1019
Rp1020
sVSteve WINKLER
p1021
g2
((lp1022
VUSA
p1023
atp1024
Rp1025
sVJun OKADA
p1026
g2
((lp1027
tp1028
Rp1029
sVSamuel AUXIER
p1030
g2
((lp1031
VUSA
p1032
atp1033
Rp1034
sVVeronique VERRUE
p1035
g2
((lp1036
VFRA
p1037
atp1038
Rp1039
sVSvetlana KANDIBA
p1040
g2
((lp1041
VRUS
p1042
atp1043
Rp1044
sVJulia SEBESTYEN
p1045
g2
((lp1046
tp1047
Rp1048
sVEva SZILAGYI
p1049
g2
((lp1050
VISU
p1051
atp1052
Rp1053
sVJoyce D. KOMPERDA
p1054
g2
((lp1055
VUSA
p1056
atp1057
Rp1058
sVLisa JELINEK
p1059
g2
((lp1060
VAUS
p1061
atp1062
Rp1063
sVPatricia HOUGHTON
p1064
g2
((lp1065
VGBR
p1066
atp1067
Rp1068
sVKonstantin KOSTIN
p1069
g2
((lp1070
tp1071
Rp1072
sVLudwig CZOCZEK
p1073
g2
((lp1074
VGER
p1075
atp1076
Rp1077
sVMasako KUBOTA
p1078
g2
((lp1079
VJPN
p1080
atp1081
Rp1082
sVSlavka GRINCOVA
p1083
g2
((lp1084
tp1085
Rp1086
sVEddy WU
p1087
g2
((lp1088
VTPE
p1089
atp1090
Rp1091
sVIgor FEDCHENKO
p1092
g2
((lp1093
VUKR
p1094
atp1095
Rp1096
sVChihee RHEE
p1097
g2
((lp1098
VKOR
p1099
atp1100
Rp1101
sVNobuo WAKITA
p1102
g2
((lp1103
VJPN
p1104
atp1105
Rp1106
sVSandra WILLIAMSON-LEADLEY
p1107
g2
((lp1108
VNZL
p1109
atp1110
Rp1111
sVLone CHRISTENSEN AMSTRUP
p1112
g2
((lp1113
VISU
p1114
atp1115
Rp1116
sVJulia REY
p1117
g2
((lp1118
tp1119
Rp1120
sVAndreas WALDECK
p1121
g2
((lp1122
VGER
p1123
atp1124
Rp1125
sVDaniel HUGENTOBLER
p1126
g2
((lp1127
tp1128
Rp1129
sVXander GIJTENBEEK
p1130
g2
((lp1131
tp1132
Rp1133
sVTomas KIKA
p1134
g2
((lp1135
VISU
p1136
atp1137
Rp1138
sVAlfred KORYTEK
p1139
g2
((lp1140
tp1141
Rp1142
sVAnna CHATZIATHANASSIOU
p1143
g2
((lp1144
tp1145
Rp1146
sVJulia ANDREEVA
p1147
g2
((lp1148
VRUS
p1149
atp1150
Rp1151
sVKaren BUTCHER
p1152
g2
((lp1153
VCAN
p1154
atp1155
Rp1156
sVGabor KOLECSANSZKY
p1157
g2
((lp1158
VISU
p1159
atp1160
Rp1161
sVElizabeth LITTLER
p1162
g2
((lp1163
tp1164
Rp1165
sVYukiko OKABE
p1166
g2
((lp1167
VJPN
p1168
atp1169
Rp1170
sVYury BALKOV
p1171
g2
((lp1172
VUKR
p1173
atp1174
Rp1175
sVTiziana MORANDI
p1176
g2
((lp1177
VITA
p1178
atp1179
Rp1180
sVMarina SANAIA
p1181
g2
((lp1182
VRUS
p1183
atp1184
Rp1185
sVMyriam LORIOL-OBERWYLER
p1186
g2
((lp1187
tp1188
Rp1189
sVMarcin KOZUBEK
p1190
g2
((lp1191
VPOL
p1192
atp1193
Rp1194
sVGavril VELCHEV
p1195
g2
((lp1196
tp1197
Rp1198
sVChristine HURTH
p1199
g2
((lp1200
VFRA
p1201
atp1202
Rp1203
sVGeorgi DIMKOV
p1204
g2
((lp1205
tp1206
Rp1207
sVGeorg KRUMMENACHER
p1208
g2
((lp1209
VSUI
p1210
atp1211
Rp1212
sVEdith SCHILLER
p1213
g2
((lp1214
tp1215
Rp1216
sVSarkis TEWANIAN
p1217
g2
((lp1218
tp1219
Rp1220
sVLionel AVOT
p1221
g2
((lp1222
tp1223
Rp1224
sVOlga ZAKOVA
p1225
g2
((lp1226
VCZE
p1227
atp1228
Rp1229
sVFlorence VUYLSTEKER
p1230
g2
((lp1231
VFRA
p1232
atp1233
Rp1234
sVClaudia UNGER
p1235
g2
((lp1236
tp1237
Rp1238
sVChristel BORGHI
p1239
g2
((lp1240
tp1241
Rp1242
sVKaren HOWARD
p1243
g2
((lp1244
VCAN
p1245
atp1246
Rp1247
sVFernand FEDRONIC
p1248
g2
((lp1249
tp1250
Rp1251
sVRavi WALIA
p1252
g2
((lp1253
tp1254
Rp1255
sVTianyi ZHANG
p1256
g2
((lp1257
VCHN
p1258
atp1259
Rp1260
sVUlf DENZER
p1261
g2
((lp1262
VGER
p1263
atp1264
Rp1265
sVWieland LUEDERS
p1266
g2
((lp1267
tp1268
Rp1269
sVZuzana PLESNIKOVA
p1270
g2
((lp1271
VCZE
p1272
atp1273
Rp1274
sVBrett DRURY
p1275
g2
((lp1276
VUSA
p1277
atp1278
Rp1279
sVZanna KULIK
p1280
g2
((lp1281
VEST
p1282
atp1283
Rp1284
sVHeide MARITCZAK
p1285
g2
((lp1286
VAUT
p1287
atp1288
Rp1289
sVHelene CUCUPHAT
p1290
g2
((lp1291
VFRA
p1292
atp1293
Rp1294
sVMarianne HUGUENIN
p1295
g2
((lp1296
VSUI
p1297
atp1298
Rp1299
sVOlga MARKOVA
p1300
g2
((lp1301
tp1302
Rp1303
sVDiana BARBACCI LEVY
p1304
g2
((lp1305
VSUI
p1306
atp1307
Rp1308
sVDeveny DECK
p1309
g2
((lp1310
VUSA
p1311
atp1312
Rp1313
sVAnthony LEROY
p1314
g2
((lp1315
VFRA
p1316
atp1317
Rp1318
sVStanislava SMIDOVA
p1319
g2
((lp1320
VCZE
p1321
atp1322
Rp1323
sVSylvain GUIBORD
p1324
g2
((lp1325
VCAN
p1326
atp1327
Rp1328
sVMichael WEBSTER
p1329
g2
((lp1330
tp1331
Rp1332
sVWalter TOIGO
p1333
g2
((lp1334
VITA
p1335
atp1336
Rp1337
sVKerstin KIMMINUS
p1338
g2
((lp1339
VGER
p1340
atp1341
Rp1342
sVSeppo KURTTI
p1343
g2
((lp1344
VFIN
p1345
atp1346
Rp1347
sVOlga BARANOVA
p1348
g2
((lp1349
tp1350
Rp1351
sVNaotsugu YOSHIHIRO
p1352
g2
((lp1353
VJPN
p1354
atp1355
Rp1356
sVTineke POSNO
p1357
g2
((lp1358
VISU
p1359
atp1360
Rp1361
sVSharon ROGERS
p1362
g2
((lp1363
VUSA
p1364
atp1365
Rp1366
sVPeter CAIN
p1367
g2
((lp1368
tp1369
Rp1370
sVScott DAVIS
p1371
g2
((lp1372
tp1373
Rp1374
sVYumin WANG
p1375
g2
((lp1376
VCHN
p1377
atp1378
Rp1379
sVFranco BENINI
p1380
g2
((lp1381
VITA
p1382
atp1383
Rp1384
sVSoltan KOKOEV
p1385
g2
((lp1386
tp1387
Rp1388
sVRisa HAYAKAWA
p1389
g2
((lp1390
tp1391
Rp1392
sVChristopher BUCHANAN
p1393
g2
((lp1394
VGBR
p1395
atp1396
Rp1397
sVFabrizio PEDRAZZINI
p1398
g2
((lp1399
tp1400
Rp1401
sVAnna BURVALL
p1402
g2
((lp1403
VISU
p1404
atp1405
Rp1406
sVGuenther TEICHMANN
p1407
g2
((lp1408
VGER
p1409
atp1410
Rp1411
sVWilhelmina VAN VEEN
p1412
g2
((lp1413
tp1414
Rp1415
sVGuona ZHAO
p1416
g2
((lp1417
VCHN
p1418
atp1419
Rp1420
sVNikolai SALNIKOV
p1421
g2
((lp1422
VEST
p1423
atp1424
Rp1425
sVKatalin ALPERN
p1426
g2
((lp1427
VISR
p1428
atp1429
Rp1430
sVSasha MARTINEZ
p1431
g2
((lp1432
VMEX
p1433
atp1434
Rp1435
sVFrederic AVOT
p1436
g2
((lp1437
tp1438
Rp1439
sVClaudia STAHNKE
p1440
g2
((lp1441
VGER
p1442
atp1443
Rp1444
sVIrina ABSALIAMOVA
p1445
g2
((lp1446
VARM
p1447
aVBLR
p1448
atp1449
Rp1450
sVKaterina MRAZOVA
p1451
g2
((lp1452
tp1453
Rp1454
sVInessa MATVEEVA
p1455
g2
((lp1456
VISU
p1457
atp1458
Rp1459
sVZsofia WAGNER
p1460
g2
((lp1461
VHUN
p1462
atp1463
Rp1464
sVJezabel DABOUIS
p1465
g2
((lp1466
VFRA
p1467
atp1468
Rp1469
sVPatrick IBENS
p1470
g2
((lp1471
VBEL
p1472
atp1473
Rp1474
sVPaula M. NAUGHTON
p1475
g2
((lp1476
VUSA
p1477
atp1478
Rp1479
sVMatteo BALLABIO
p1480
g2
((lp1481
tp1482
Rp1483
sVMargus HERNITS
p1484
g2
((lp1485
tp1486
Rp1487
sVZuzana HOROSCAKOVA
p1488
g2
((lp1489
VISU
p1490
atp1491
Rp1492
sVSandor GALAMBOS
p1493
g2
((lp1494
tp1495
Rp1496
sVSuzanne LINDSEY
p1497
g2
((lp1498
VGBR
p1499
atp1500
Rp1501
sVAkos PETHES
p1502
g2
((lp1503
VHUN
p1504
atp1505
Rp1506
sVSaioa SANCHO
p1507
g2
((lp1508
VESP
p1509
atp1510
Rp1511
sVPaolo PIZZOCARI
p1512
g2
((lp1513
VITA
p1514
atp1515
Rp1516
sVAnett POETZSCH
p1517
g2
((lp1518
tp1519
Rp1520
sVRonny BANFI
p1521
g2
((lp1522
tp1523
Rp1524
sVKaren ARCHER
p1525
g2
((lp1526
VGBR
p1527
atp1528
Rp1529
sVNikolai IANEV
p1530
g2
((lp1531
VBUL
p1532
atp1533
Rp1534
sVMarkus GERMANN
p1535
g2
((lp1536
VSUI
p1537
atp1538
Rp1539
sVJulia DEGENHARDT
p1540
g2
((lp1541
tp1542
Rp1543
sVMarie BOWNESS
p1544
g2
((lp1545
tp1546
Rp1547
sVMarta OLOZAGARRE
p1548
g2
((lp1549
VESP
p1550
atp1551
Rp1552
sVJung-Sue LEE
p1553
g2
((lp1554
VKOR
p1555
atp1556
Rp1557
sVMelody Tan Tan YIP
p1558
g2
((lp1559
VHKG
p1560
atp1561
Rp1562
sVMark STORTON
p1563
g2
((lp1564
VAUS
p1565
atp1566
Rp1567
sVMarta SENRA
p1568
g2
((lp1569
tp1570
Rp1571
sVBruno MARCOTTE
p1572
g2
((lp1573
VISU
p1574
atp1575
Rp1576
sVNicolae BELLU
p1577
g2
((lp1578
tp1579
Rp1580
sVWendy LANGTON
p1581
g2
((lp1582
VAUS
p1583
atp1584
Rp1585
sVAttila SOOS
p1586
g2
((lp1587
VHUN
p1588
atp1589
Rp1590
sVVeronique FLEURY
p1591
g2
((lp1592
tp1593
Rp1594
sVAndrea GMELIN
p1595
g2
((lp1596
VROM
p1597
atp1598
Rp1599
sVSalome CHIGOGIDZE
p1600
g2
((lp1601
VGEO
p1602
atp1603
Rp1604
sVHal MARRON
p1605
g2
((lp1606
VUSA
p1607
atp1608
Rp1609
sVRaffaella LOCATELLI
p1610
g2
((lp1611
VITA
p1612
atp1613
Rp1614
sVFelicitas BABUSIKOVA
p1615
g2
((lp1616
VISU
p1617
atp1618
Rp1619
sVTomoaki KOYAMA
p1620
g2
((lp1621
tp1622
Rp1623
sVInger ANDERSSON
p1624
g2
((lp1625
VSWE
p1626
atp1627
Rp1628
sVIgor BICH
p1629
g2
((lp1630
tp1631
Rp1632
sVYanghong ZHAO
p1633
g2
((lp1634
VCHN
p1635
atp1636
Rp1637
sVPirjo UIMONEN
p1638
g2
((lp1639
tp1640
Rp1641
sVFabio BIANCHETTI
p1642
g2
((lp1643
tp1644
Rp1645
sVMargaret WORSFOLD
p1646
g2
((lp1647
tp1648
Rp1649
sVCynthia BENSON
p1650
g2
((lp1651
VCAN
p1652
atp1653
Rp1654
sVLaurene COLLIN-KNOBLAUCH
p1655
g2
((lp1656
tp1657
Rp1658
sVBreda MARINSEK
p1659
g2
((lp1660
VSLO
p1661
atp1662
Rp1663
sVFeng HUANG
p1664
g2
((lp1665
VCHN
p1666
atp1667
Rp1668
sVEmiko KITAJI
p1669
g2
((lp1670
tp1671
Rp1672
sVVessela POPOVA
p1673
g2
((lp1674
tp1675
Rp1676
sVJohn GREENWOOD
p1677
g2
((lp1678
VCAN
p1679
atp1680
Rp1681
sVEbru ANILDI
p1682
g2
((lp1683
tp1684
Rp1685
sVAnne HARDY-THOMAS
p1686
g2
((lp1687
VFRA
p1688
atp1689
Rp1690
sVPhilippe MERIGUET
p1691
g2
((lp1692
VFRA
p1693
atp1694
Rp1695
sVZuzana ZACKOVA
p1696
g2
((lp1697
tp1698
Rp1699
sVChristiane MILES
p1700
g2
((lp1701
VSUI
p1702
atp1703
Rp1704
sVMaira ABASOVA
p1705
g2
((lp1706
VRUS
p1707
atp1708
Rp1709
sVYibing JIANG
p1710
g2
((lp1711
VCHN
p1712
atp1713
Rp1714
sVNa Young AHN
p1715
g2
((lp1716
VKOR
p1717
atp1718
Rp1719
sVAlexei SHIRSHOV
p1720
g2
((lp1721
VBLR
p1722
atp1723
Rp1724
sVNicole LEBLANC-RICHARD
p1725
g2
((lp1726
VCAN
p1727
atp1728
Rp1729
sVTerry KUBICKA
p1730
g2
((lp1731
tp1732
Rp1733
sVLeanna CARON
p1734
g2
((lp1735
VCAN
p1736
atp1737
Rp1738
sVKatarina HENRIKSSON
p1739
g2
((lp1740
VSWE
p1741
atp1742
Rp1743
sVAgnieszka SWIDERSKA
p1744
g2
((lp1745
tp1746
Rp1747
sVSo-Young AN
p1748
g2
((lp1749
VKOR
p1750
atp1751
Rp1752
sVTroy GOLDSTEIN
p1753
g2
((lp1754
tp1755
Rp1756
sVFlorin GAFENCU
p1757
g2
((lp1758
tp1759
Rp1760
sVElizabeth CLARK
p1761
g2
((lp1762
VCAN
p1763
atp1764
Rp1765
sVPeter LEVIN
p1766
g2
((lp1767
VSWE
p1768
atp1769
Rp1770
sVRanko HIRAI
p1771
g2
((lp1772
tp1773
Rp1774
sVSaodat NUMANOVA
p1775
g2
((lp1776
VUZB
p1777
atp1778
Rp1779
sVCharles Z. CYR
p1780
g2
((lp1781
VUSA
p1782
atp1783
Rp1784
sVAriadna MORONES NEGRETE
p1785
g2
((lp1786
tp1787
Rp1788
sVApril SARGENT
p1789
g2
((lp1790
tp1791
Rp1792
sVWeiguang CHEN
p1793
g2
((lp1794
VCHN
p1795
atp1796
Rp1797
sVMona ADOLFSEN
p1798
g2
((lp1799
tp1800
Rp1801
sV-
p1802
g2
((lp1803
V-
p1804
atp1805
Rp1806
sVSally REHORICK
p1807
g2
((lp1808
VCAN
p1809
atp1810
Rp1811
sVDarja GABROVSEK-POLAJNAR
p1812
g2
((lp1813
tp1814
Rp1815
sVSviatoslav BABENKO
p1816
g2
((lp1817
VRUS
p1818
atp1819
Rp1820
sVClaudia BRAMBATI
p1821
g2
((lp1822
VITA
p1823
atp1824
Rp1825
sVYuri KLIUSHNIKOV
p1826
g2
((lp1827
VUKR
p1828
atp1829
Rp1830
sVNadezhda FIODOROVA
p1831
g2
((lp1832
tp1833
Rp1834
sVNenad ORBAN
p1835
g2
((lp1836
VISU
p1837
atp1838
Rp1839
sVTiziana MIORINI
p1840
g2
((lp1841
VITA
p1842
atp1843
Rp1844
sVSakae YAMAMOTO
p1845
g2
((lp1846
VJPN
p1847
atp1848
Rp1849
sVSusan JOHNSON
p1850
g2
((lp1851
VUSA
p1852
atp1853
Rp1854
sVOlga ALEXEEVA
p1855
g2
((lp1856
VISU
p1857
atp1858
Rp1859
sVJanis ENGEL
p1860
g2
((lp1861
VUSA
p1862
atp1863
Rp1864
sVEvgeni ROKHIN
p1865
g2
((lp1866
VUZB
p1867
atp1868
Rp1869
sVYuri GUSKOV
p1870
g2
((lp1871
VKAZ
p1872
atp1873
Rp1874
sVSusan PETRICEVIC
p1875
g2
((lp1876
tp1877
Rp1878
sVRoumen JORDANOV
p1879
g2
((lp1880
tp1881
Rp1882
sVNicole VAN GERWEN-MAAS
p1883
g2
((lp1884
tp1885
Rp1886
sVMateja AVBREHT
p1887
g2
((lp1888
VSLO
p1889
atp1890
Rp1891
sVKaren JONES
p1892
g2
((lp1893
VGBR
p1894
atp1895
Rp1896
sVLarisa FEDOSEEVA
p1897
g2
((lp1898
tp1899
Rp1900
sVEkaterina SEROVA
p1901
g2
((lp1902
tp1903
Rp1904
sVValerie GRELET LAMBERT
p1905
g2
((lp1906
VFRA
p1907
atp1908
Rp1909
sVSergei BARANOV
p1910
g2
((lp1911
tp1912
Rp1913
sVAya YOSHIMURA
p1914
g2
((lp1915
tp1916
Rp1917
sVLori DUNN
p1918
g2
((lp1919
VUSA
p1920
atp1921
Rp1922
sVBrigitte WENDT
p1923
g2
((lp1924
VGER
p1925
atp1926
Rp1927
sVRobyn BURLEY
p1928
g2
((lp1929
tp1930
Rp1931
sVSteven HSU
p1932
g2
((lp1933
tp1934
Rp1935
sVZsuzsanna VIKARNE-HOMOLYA
p1936
g2
((lp1937
VHUN
p1938
atp1939
Rp1940
sVMichael WALDVOGEL
p1941
g2
((lp1942
tp1943
Rp1944
sVVanessa GUSMEROLI
p1945
g2
((lp1946
tp1947
Rp1948
sVDzianis SAROKIN
p1949
g2
((lp1950
tp1951
Rp1952
sVChristl HEIDLER
p1953
g2
((lp1954
tp1955
Rp1956
sVKristina LUNDGREN
p1957
g2
((lp1958
VUSA
p1959
atp1960
Rp1961
sVAnnette BOEREN-MAAS
p1962
g2
((lp1963
tp1964
Rp1965
sVKazuya SAWADA
p1966
g2
((lp1967
tp1968
Rp1969
sVGuangying QIN
p1970
g2
((lp1971
VCHN
p1972
atp1973
Rp1974
sVWanda STANKOVIANSKA
p1975
g2
((lp1976
tp1977
Rp1978
sVMalgorzata SOBKOW
p1979
g2
((lp1980
VPOL
p1981
atp1982
Rp1983
sVChristian BAUMANN
p1984
g2
((lp1985
VGER
p1986
atp1987
Rp1988
sVAnne SARASKIN
p1989
g2
((lp1990
tp1991
Rp1992
sVLone VILLEFRANCE
p1993
g2
((lp1994
VDEN
p1995
atp1996
Rp1997
sVBenoit LAVOIE
p1998
g2
((lp1999
VCAN
p2000
atp2001
Rp2002
sVMaria MILLER
p2003
g2
((lp2004
VPOL
p2005
atp2006
Rp2007
sVKersten BELLMANN
p2008
g2
((lp2009
tp2010
Rp2011
sVRoberts KRUTKRAMELIS
p2012
g2
((lp2013
tp2014
Rp2015
sVMassimo ORLANDINI
p2016
g2
((lp2017
VITA
p2018
atp2019
Rp2020
sVMaria HRACHOVCOVA
p2021
g2
((lp2022
tp2023
Rp2024
sVWendy ENZMANN
p2025
g2
((lp2026
VUSA
p2027
atp2028
Rp2029
sVSung-Jin BYUN
p2030
g2
((lp2031
tp2032
Rp2033
sVPeggy GRAHAM
p2034
g2
((lp2035
VUSA
p2036
atp2037
Rp2038
sVTomie FUKUDOME
p2039
g2
((lp2040
VJPN
p2041
atp2042
Rp2043
sVGale TANGER
p2044
g2
((lp2045
VUSA
p2046
atp2047
Rp2048
sVIrina KOMARNICKA
p2049
g2
((lp2050
VLAT
p2051
atp2052
Rp2053
sVAnastasia PAPAGIANNOPOULOU
p2054
g2
((lp2055
tp2056
Rp2057
sVSusan BLATZ
p2058
g2
((lp2059
VCAN
p2060
atp2061
Rp2062
sVDeborah ISLAM
p2063
g2
((lp2064
VCAN
p2065
atp2066
Rp2067
sVSonja MUELLENBACH
p2068
g2
((lp2069
VGER
p2070
atp2071
Rp2072
sVMichael SLIPCHUK
p2073
g2
((lp2074
tp2075
Rp2076
sVAndre BOURGEOIS
p2077
g2
((lp2078
tp2079
Rp2080
sVMerja HUTTUNEN
p2081
g2
((lp2082
VISU
p2083
atp2084
Rp2085
sVAnn MUSING
p2086
g2
((lp2087
VBEL
p2088
atp2089
Rp2090
sVJean-Bernard HAMEL
p2091
g2
((lp2092
VFRA
p2093
atp2094
Rp2095
sVDaniela TACCANI
p2096
g2
((lp2097
VITA
p2098
atp2099
Rp2100
sVShin AMANO
p2101
g2
((lp2102
tp2103
Rp2104
sVRoland MAEDER
p2105
g2
((lp2106
VSUI
p2107
atp2108
Rp2109
sVNatan KFIR
p2110
g2
((lp2111
VISR
p2112
atp2113
Rp2114
sVPierre de LACROIX
p2115
g2
((lp2116
VFRA
p2117
atp2118
Rp2119
sVGyorgy ELEK
p2120
g2
((lp2121
tp2122
Rp2123
sVAlexander PENCHEV
p2124
g2
((lp2125
VBUL
p2126
atp2127
Rp2128
sVNatalia PRIMACHENKO
p2129
g2
((lp2130
VRUS
p2131
atp2132
Rp2133
sVHea-Kyung KIM
p2134
g2
((lp2135
VKOR
p2136
atp2137
Rp2138
sVPekka LESKINEN
p2139
g2
((lp2140
VFIN
p2141
atp2142
Rp2143
sVSvetlana LYAPINA
p2144
g2
((lp2145
VISU
p2146
atp2147
Rp2148
sVMarylin KREUZINGER
p2149
g2
((lp2150
tp2151
Rp2152
sVTomislav CIZMESIJA
p2153
g2
((lp2154
VISU
p2155
atp2156
Rp2157
sVLorna SCHRODER
p2158
g2
((lp2159
VCAN
p2160
atp2161
Rp2162
sVEun-Hee LEE
p2163
g2
((lp2164
tp2165
Rp2166
sVFrancesca FERMI
p2167
g2
((lp2168
tp2169
Rp2170
sVJennifer MAST
p2171
g2
((lp2172
VUSA
p2173
atp2174
Rp2175
sVAnastassia MAKAROVA
p2176
g2
((lp2177
VUKR
p2178
atp2179
Rp2180
sVSusan LYNCH
p2181
g2
((lp2182
tp2183
Rp2184
sVGilberto VIADANA
p2185
g2
((lp2186
tp2187
Rp2188
sVNoriko SHIROTA
p2189
g2
((lp2190
VJPN
p2191
atp2192
Rp2193
sVEniko BERKES
p2194
g2
((lp2195
tp2196
Rp2197
sVKaoru TAKINO
p2198
g2
((lp2199
VJPN
p2200
atp2201
Rp2202
sVElke TREITZ
p2203
g2
((lp2204
VGER
p2205
atp2206
Rp2207
sVCatherine L. TAYLOR
p2208
g2
((lp2209
VAUS
p2210
atp2211
Rp2212
sVFrancis BETSCH
p2213
g2
((lp2214
VFRA
p2215
atp2216
Rp2217
sVRobert ROSENBLUTH
p2218
g2
((lp2219
VUSA
p2220
atp2221
Rp2222
sVEvgenia KARNOLSKA
p2223
g2
((lp2224
VBUL
p2225
atp2226
Rp2227
sVTamie K. CAMPBELL
p2228
g2
((lp2229
VUSA
p2230
atp2231
Rp2232
sVMalgorzata GRAJCAR
p2233
g2
((lp2234
VISU
p2235
atp2236
Rp2237
sVIngrid Charlotte WOLTER
p2238
g2
((lp2239
VGER
p2240
atp2241
Rp2242
sVIris PAUL
p2243
g2
((lp2244
VISU
p2245
atp2246
Rp2247
sVKaterina KAMBERSKA
p2248
g2
((lp2249
tp2250
Rp2251
sVSandrine COLLEONI
p2252
g2
((lp2253
VFRA
p2254
atp2255
Rp2256
sVMasako KAWAI
p2257
g2
((lp2258
tp2259
Rp2260
sVPatrik BRECHT
p2261
g2
((lp2262
VSUI
p2263
atp2264
Rp2265
sVLeo  LENKOLA
p2266
g2
((lp2267
VFIN
p2268
atp2269
Rp2270
sVMaria OLESINSKA
p2271
g2
((lp2272
VPOL
p2273
atp2274
Rp2275
sVMayumi KATO
p2276
g2
((lp2277
VJPN
p2278
atp2279
Rp2280
sVZoia JORDANOVA
p2281
g2
((lp2282
VBUL
p2283
atp2284
Rp2285
sVHely ABBONDATI
p2286
g2
((lp2287
VFIN
p2288
atp2289
Rp2290
sVDavid MUNOZ
p2291
g2
((lp2292
VESP
p2293
atp2294
Rp2295
sVGloria MORANDI
p2296
g2
((lp2297
VITA
p2298
atp2299
Rp2300
sVAlla SHEKHOVTSEVA
p2301
g2
((lp2302
VRUS
p2303
atp2304
Rp2305
sVLolita LABUNSKAIYA
p2306
g2
((lp2307
VRUS
p2308
aVUKR
p2309
atp2310
Rp2311
sVAnu NIINIRANTA
p2312
g2
((lp2313
VISU
p2314
atp2315
Rp2316
sVKatarina GROF MITROVIC
p2317
g2
((lp2318
VISU
p2319
atp2320
Rp2321
sVDonatella LEONELLI
p2322
g2
((lp2323
tp2324
Rp2325
sVPirjo ELO
p2326
g2
((lp2327
VFIN
p2328
atp2329
Rp2330
sVAlbert ZAYDMAN
p2331
g2
((lp2332
VISR
p2333
atp2334
Rp2335
sVMakoto KANO
p2336
g2
((lp2337
VJPN
p2338
atp2339
Rp2340
sVAna-Maria SARE
p2341
g2
((lp2342
VCRO
p2343
atp2344
Rp2345
sVKathleen HARMON
p2346
g2
((lp2347
VUSA
p2348
atp2349
Rp2350
sVAllan BOEHM
p2351
g2
((lp2352
VSVK
p2353
atp2354
Rp2355
sVMami MAEDA
p2356
g2
((lp2357
VJPN
p2358
atp2359
Rp2360
sVRossella CECCATTINI
p2361
g2
((lp2362
VITA
p2363
atp2364
Rp2365
sVYaqin JI
p2366
g2
((lp2367
VCHN
p2368
atp2369
Rp2370
sVJoan H. GRUBER
p2371
g2
((lp2372
VUSA
p2373
atp2374
Rp2375
sVMarina BESCHEA
p2376
g2
((lp2377
VROM
p2378
atp2379
Rp2380
sVHermann SCHULZ
p2381
g2
((lp2382
VGER
p2383
atp2384
Rp2385
sVIrina KIREEVA
p2386
g2
((lp2387
VAZE
p2388
atp2389
Rp2390
sVElena SAVOSTOVA
p2391
g2
((lp2392
tp2393
Rp2394
sVYou-Hwa LEE
p2395
g2
((lp2396
VKOR
p2397
atp2398
Rp2399
sVVeronique TOLAZZI
p2400
g2
((lp2401
VFRA
p2402
atp2403
Rp2404
sVBettina MEIER
p2405
g2
((lp2406
VSUI
p2407
atp2408
Rp2409
sVIgor OBRAZTSOV
p2410
g2
((lp2411
VRUS
p2412
atp2413
Rp2414
sVVera TAUCHMANOVA
p2415
g2
((lp2416
VCZE
p2417
atp2418
Rp2419
sVNicole MAAS
p2420
g2
((lp2421
VNED
p2422
atp2423
Rp2424
sVMaria TUMANOVSKAYA-CHAIKA
p2425
g2
((lp2426
tp2427
Rp2428
sVChrista GUNSAM
p2429
g2
((lp2430
VISU
p2431
atp2432
Rp2433
sVNatasa SKOK
p2434
g2
((lp2435
VSLO
p2436
atp2437
Rp2438
sVTaffy HOLLIDAY
p2439
g2
((lp2440
VUSA
p2441
atp2442
Rp2443
sVMonica MACDONALD
p2444
g2
((lp2445
tp2446
Rp2447
sVJanice HUNTER
p2448
g2
((lp2449
VCAN
p2450
atp2451
Rp2452
sVAnne CAMMETT
p2453
g2
((lp2454
VUSA
p2455
atp2456
Rp2457
sVMarco BUTTARELLI
p2458
g2
((lp2459
VITA
p2460
atp2461
Rp2462
sVIstvan SUGAR
p2463
g2
((lp2464
VHUN
p2465
atp2466
Rp2467
sVHeinz-Ulrich WALTHER
p2468
g2
((lp2469
VGER
p2470
atp2471
Rp2472
sVWei SHI
p2473
g2
((lp2474
VCHN
p2475
atp2476
Rp2477
sVLone AMSTRUP LINNEMANN
p2478
g2
((lp2479
VDEN
p2480
atp2481
Rp2482
sVRobyn S. NOTT
p2483
g2
((lp2484
tp2485
Rp2486
sVMatjaz KRUSEC
p2487
g2
((lp2488
VSLO
p2489
atp2490
Rp2491
sVFan YANG
p2492
g2
((lp2493
VCHN
p2494
atp2495
Rp2496
sVSophie SCHMITT
p2497
g2
((lp2498
VFRA
p2499
atp2500
Rp2501
sVJae-Eun CHUNG
p2502
g2
((lp2503
tp2504
Rp2505
sVLeena KURRI
p2506
g2
((lp2507
VFIN
p2508
atp2509
Rp2510
sVJoseph L. INMAN
p2511
g2
((lp2512
VUSA
p2513
atp2514
Rp2515
sVMaria BAEKGAARD KJAER
p2516
g2
((lp2517
tp2518
Rp2519
sVIvana JAKUPCEVIC
p2520
g2
((lp2521
tp2522
Rp2523
sVTodd BROMLEY
p2524
g2
((lp2525
VUSA
p2526
atp2527
Rp2528
sVSylwia NOWAK-TREBACKA
p2529
g2
((lp2530
tp2531
Rp2532
sVFlorence CATRY DE SURMONT
p2533
g2
((lp2534
VFRA
p2535
atp2536
Rp2537
sVShizuko UGAKI
p2538
g2
((lp2539
VJPN
p2540
atp2541
Rp2542
sVRaoul LEBLANC
p2543
g2
((lp2544
tp2545
Rp2546
sVMaria MCLEAN
p2547
g2
((lp2548
tp2549
Rp2550
sVHongguo REN
p2551
g2
((lp2552
VCHN
p2553
atp2554
Rp2555
sVAlexei URMANOV
p2556
g2
((lp2557
tp2558
Rp2559
sVPamela CHISLETT
p2560
g2
((lp2561
VISU
p2562
atp2563
Rp2564
sVDiana STEVENS
p2565
g2
((lp2566
tp2567
Rp2568
sVThierry MONMINOUX
p2569
g2
((lp2570
VFRA
p2571
atp2572
Rp2573
sVHye-Kyung LIM
p2574
g2
((lp2575
VKOR
p2576
atp2577
Rp2578
sVHelmut SIEBER
p2579
g2
((lp2580
tp2581
Rp2582
sVHerbert HOLIK
p2583
g2
((lp2584
tp2585
Rp2586
sVPhilippe MAITROT
p2587
g2
((lp2588
VFRA
p2589
atp2590
Rp2591
sVBernhard JUST
p2592
g2
((lp2593
tp2594
Rp2595
sVViktor PETRENKO
p2596
g2
((lp2597
tp2598
Rp2599
sVWhitney GAYNOR
p2600
g2
((lp2601
tp2602
Rp2603
sVKatalin BALCZO
p2604
g2
((lp2605
VHUN
p2606
atp2607
Rp2608
sVErnestien BAKKER
p2609
g2
((lp2610
tp2611
Rp2612
sVJyrina LORENZ
p2613
g2
((lp2614
tp2615
Rp2616
sVShae ZUKIWSKY
p2617
g2
((lp2618
tp2619
Rp2620
sVLaurent CARRIERE
p2621
g2
((lp2622
VFRA
p2623
atp2624
Rp2625
sVJayson PEACE
p2626
g2
((lp2627
tp2628
Rp2629
sVMichelle COLLETT
p2630
g2
((lp2631
VGBR
p2632
atp2633
Rp2634
sVLise ROSTO JENSEN
p2635
g2
((lp2636
VNOR
p2637
atp2638
Rp2639
sVThomas HECK
p2640
g2
((lp2641
VGER
p2642
atp2643
Rp2644
sVSung-Hee KOH
p2645
g2
((lp2646
VKOR
p2647
atp2648
Rp2649
sVChristiane MOERTH
p2650
g2
((lp2651
VAUT
p2652
atp2653
Rp2654
sVMiroslav MISUREC
p2655
g2
((lp2656
VCZE
p2657
atp2658
Rp2659
sVPatricia MORITZ
p2660
g2
((lp2661
VAUS
p2662
atp2663
Rp2664
sVIsabel DUVAL DE NAVARRE
p2665
g2
((lp2666
VISU
p2667
atp2668
Rp2669
sVRonald BEAU
p2670
g2
((lp2671
VFRA
p2672
atp2673
Rp2674
sVVirginia DE AGOSTINI
p2675
g2
((lp2676
VITA
p2677
atp2678
Rp2679
sVVerena DIENER
p2680
g2
((lp2681
tp2682
Rp2683
sVDeborah CURRIE
p2684
g2
((lp2685
VUSA
p2686
atp2687
Rp2688
sVKo-Man TING
p2689
g2
((lp2690
VISU
p2691
atp2692
Rp2693
sVAsa NORDBACK
p2694
g2
((lp2695
VSWE
p2696
atp2697
Rp2698
sVElena LISOVA
p2699
g2
((lp2700
VUKR
p2701
atp2702
Rp2703
sVPatricia S. FRENCH
p2704
g2
((lp2705
VISU
p2706
atp2707
Rp2708
sVKenji AMAKO
p2709
g2
((lp2710
VJPN
p2711
atp2712
Rp2713
sVAlexander KOGAN
p2714
g2
((lp2715
VRUS
p2716
atp2717
Rp2718
sVJeroen PRINS
p2719
g2
((lp2720
VNED
p2721
atp2722
Rp2723
sVGilles VANDENBROECK
p2724
g2
((lp2725
VFRA
p2726
atp2727
Rp2728
sVYury KLIUSHNIKOV
p2729
g2
((lp2730
VUKR
p2731
atp2732
Rp2733
sVSimone MOORE
p2734
g2
((lp2735
tp2736
Rp2737
sVMakoto OKAZAKI
p2738
g2
((lp2739
tp2740
Rp2741
sVElizabeth CAIN
p2742
g2
((lp2743
VISU
p2744
atp2745
Rp2746
sVAyumi KOZUKA
p2747
g2
((lp2748
VJPN
p2749
atp2750
Rp2751
sVLine KALDESTAD
p2752
g2
((lp2753
tp2754
Rp2755
sVDanuta DUBROWKO
p2756
g2
((lp2757
VPOL
p2758
atp2759
Rp2760
sVBrad COX
p2761
g2
((lp2762
tp2763
Rp2764
sVUrsula STAHL
p2765
g2
((lp2766
VAUT
p2767
atp2768
Rp2769
sVDaniel DELFA
p2770
g2
((lp2771
VESP
p2772
atp2773
Rp2774
sVMichela CESARO
p2775
g2
((lp2776
VITA
p2777
atp2778
Rp2779
sVChristine BLANC
p2780
g2
((lp2781
VSUI
p2782
atp2783
Rp2784
sVTatiana DANILENKO
p2785
g2
((lp2786
VRUS
p2787
atp2788
Rp2789
sVElena BURIAK
p2790
g2
((lp2791
VRUS
p2792
atp2793
Rp2794
sVDan CHEN
p2795
g2
((lp2796
VHKG
p2797
atp2798
Rp2799
s.